
led_blink.elf:     file format elf32-littlearm

Sections:
Idx Name          Size      VMA       LMA       File off  Algn
  0 .isr_vector   00000188  08000000  08000000  00001000  2**0
                  CONTENTS, ALLOC, LOAD, READONLY, DATA
  1 .text         00002e94  08000188  08000188  00001188  2**3
                  CONTENTS, ALLOC, LOAD, READONLY, CODE
  2 .rodata       00000010  08003020  08003020  00004020  2**3
                  CONTENTS, ALLOC, LOAD, READONLY, DATA
  3 .ARM.extab    00000000  08003030  08003030  00005058  2**0
                  CONTENTS, READONLY
  4 .ARM          00000000  08003030  08003030  00005058  2**0
                  CONTENTS, READONLY
  5 .preinit_array 00000000  08003030  08003030  00005058  2**0
                  CONTENTS, ALLOC, LOAD, DATA
  6 .init_array   00000004  08003030  08003030  00004030  2**2
                  CONTENTS, ALLOC, LOAD, READONLY, DATA
  7 .fini_array   00000004  08003034  08003034  00004034  2**2
                  CONTENTS, ALLOC, LOAD, READONLY, DATA
  8 .data         00000058  20000000  08003038  00005000  2**2
                  CONTENTS, ALLOC, LOAD, DATA
  9 .ccmram       00000000  10000000  10000000  00005058  2**0
                  CONTENTS
 10 .bss          000002c4  20000058  20000058  00005058  2**2
                  ALLOC
 11 ._user_heap_stack 00000604  2000031c  2000031c  00005058  2**0
                  ALLOC
 12 .ARM.attributes 00000030  00000000  00000000  00005058  2**0
                  CONTENTS, READONLY
 13 .debug_info   000025c7  00000000  00000000  00005088  2**0
                  CONTENTS, READONLY, DEBUGGING, OCTETS
 14 .debug_abbrev 00000fc5  00000000  00000000  0000764f  2**0
                  CONTENTS, READONLY, DEBUGGING, OCTETS
 15 .debug_aranges 00000328  00000000  00000000  00008618  2**3
                  CONTENTS, READONLY, DEBUGGING, OCTETS
 16 .debug_rnglists 00000235  00000000  00000000  00008940  2**0
                  CONTENTS, READONLY, DEBUGGING, OCTETS
 17 .debug_macro  00019571  00000000  00000000  00008b75  2**0
                  CONTENTS, READONLY, DEBUGGING, OCTETS
 18 .debug_line   000040b9  00000000  00000000  000220e6  2**0
                  CONTENTS, READONLY, DEBUGGING, OCTETS
 19 .debug_str    0008c950  00000000  00000000  0002619f  2**0
                  CONTENTS, READONLY, DEBUGGING, OCTETS
 20 .comment      00000043  00000000  00000000  000b2aef  2**0
                  CONTENTS, READONLY
 21 .debug_frame  00000da8  00000000  00000000  000b2b34  2**2
                  CONTENTS, READONLY, DEBUGGING, OCTETS
 22 .debug_line_str 00000066  00000000  00000000  000b38dc  2**0
                  CONTENTS, READONLY, DEBUGGING, OCTETS

Disassembly of section .text:

08000188 <__do_global_dtors_aux>:
 8000188:	b510      	push	{r4, lr}
 800018a:	4c05      	ldr	r4, [pc, #20]	@ (80001a0 <__do_global_dtors_aux+0x18>)
 800018c:	7823      	ldrb	r3, [r4, #0]
 800018e:	b933      	cbnz	r3, 800019e <__do_global_dtors_aux+0x16>
 8000190:	4b04      	ldr	r3, [pc, #16]	@ (80001a4 <__do_global_dtors_aux+0x1c>)
 8000192:	b113      	cbz	r3, 800019a <__do_global_dtors_aux+0x12>
 8000194:	4804      	ldr	r0, [pc, #16]	@ (80001a8 <__do_global_dtors_aux+0x20>)
 8000196:	f3af 8000 	nop.w
 800019a:	2301      	movs	r3, #1
 800019c:	7023      	strb	r3, [r4, #0]
 800019e:	bd10      	pop	{r4, pc}
 80001a0:	20000058 	.word	0x20000058
 80001a4:	00000000 	.word	0x00000000
 80001a8:	08003004 	.word	0x08003004

080001ac <frame_dummy>:
 80001ac:	b508      	push	{r3, lr}
 80001ae:	4b03      	ldr	r3, [pc, #12]	@ (80001bc <frame_dummy+0x10>)
 80001b0:	b11b      	cbz	r3, 80001ba <frame_dummy+0xe>
 80001b2:	4903      	ldr	r1, [pc, #12]	@ (80001c0 <frame_dummy+0x14>)
 80001b4:	4803      	ldr	r0, [pc, #12]	@ (80001c4 <frame_dummy+0x18>)
 80001b6:	f3af 8000 	nop.w
 80001ba:	bd08      	pop	{r3, pc}
 80001bc:	00000000 	.word	0x00000000
 80001c0:	2000005c 	.word	0x2000005c
 80001c4:	08003004 	.word	0x08003004

080001c8 <__aeabi_drsub>:
 80001c8:	f081 4100 	eor.w	r1, r1, #2147483648	@ 0x80000000
 80001cc:	e002      	b.n	80001d4 <__adddf3>
 80001ce:	bf00      	nop

080001d0 <__aeabi_dsub>:
 80001d0:	f083 4300 	eor.w	r3, r3, #2147483648	@ 0x80000000

080001d4 <__adddf3>:
 80001d4:	b530      	push	{r4, r5, lr}
 80001d6:	ea4f 0441 	mov.w	r4, r1, lsl #1
 80001da:	ea4f 0543 	mov.w	r5, r3, lsl #1
 80001de:	ea94 0f05 	teq	r4, r5
 80001e2:	bf08      	it	eq
 80001e4:	ea90 0f02 	teqeq	r0, r2
 80001e8:	bf1f      	itttt	ne
 80001ea:	ea54 0c00 	orrsne.w	ip, r4, r0
 80001ee:	ea55 0c02 	orrsne.w	ip, r5, r2
 80001f2:	ea7f 5c64 	mvnsne.w	ip, r4, asr #21
 80001f6:	ea7f 5c65 	mvnsne.w	ip, r5, asr #21
 80001fa:	f000 80e2 	beq.w	80003c2 <__adddf3+0x1ee>
 80001fe:	ea4f 5454 	mov.w	r4, r4, lsr #21
 8000202:	ebd4 5555 	rsbs	r5, r4, r5, lsr #21
 8000206:	bfb8      	it	lt
 8000208:	426d      	neglt	r5, r5
 800020a:	dd0c      	ble.n	8000226 <__adddf3+0x52>
 800020c:	442c      	add	r4, r5
 800020e:	ea80 0202 	eor.w	r2, r0, r2
 8000212:	ea81 0303 	eor.w	r3, r1, r3
 8000216:	ea82 0000 	eor.w	r0, r2, r0
 800021a:	ea83 0101 	eor.w	r1, r3, r1
 800021e:	ea80 0202 	eor.w	r2, r0, r2
 8000222:	ea81 0303 	eor.w	r3, r1, r3
 8000226:	2d36      	cmp	r5, #54	@ 0x36
 8000228:	bf88      	it	hi
 800022a:	bd30      	pophi	{r4, r5, pc}
 800022c:	f011 4f00 	tst.w	r1, #2147483648	@ 0x80000000
 8000230:	ea4f 3101 	mov.w	r1, r1, lsl #12
 8000234:	f44f 1c80 	mov.w	ip, #1048576	@ 0x100000
 8000238:	ea4c 3111 	orr.w	r1, ip, r1, lsr #12
 800023c:	d002      	beq.n	8000244 <__adddf3+0x70>
 800023e:	4240      	negs	r0, r0
 8000240:	eb61 0141 	sbc.w	r1, r1, r1, lsl #1
 8000244:	f013 4f00 	tst.w	r3, #2147483648	@ 0x80000000
 8000248:	ea4f 3303 	mov.w	r3, r3, lsl #12
 800024c:	ea4c 3313 	orr.w	r3, ip, r3, lsr #12
 8000250:	d002      	beq.n	8000258 <__adddf3+0x84>
 8000252:	4252      	negs	r2, r2
 8000254:	eb63 0343 	sbc.w	r3, r3, r3, lsl #1
 8000258:	ea94 0f05 	teq	r4, r5
 800025c:	f000 80a7 	beq.w	80003ae <__adddf3+0x1da>
 8000260:	f1a4 0401 	sub.w	r4, r4, #1
 8000264:	f1d5 0e20 	rsbs	lr, r5, #32
 8000268:	db0d      	blt.n	8000286 <__adddf3+0xb2>
 800026a:	fa02 fc0e 	lsl.w	ip, r2, lr
 800026e:	fa22 f205 	lsr.w	r2, r2, r5
 8000272:	1880      	adds	r0, r0, r2
 8000274:	f141 0100 	adc.w	r1, r1, #0
 8000278:	fa03 f20e 	lsl.w	r2, r3, lr
 800027c:	1880      	adds	r0, r0, r2
 800027e:	fa43 f305 	asr.w	r3, r3, r5
 8000282:	4159      	adcs	r1, r3
 8000284:	e00e      	b.n	80002a4 <__adddf3+0xd0>
 8000286:	f1a5 0520 	sub.w	r5, r5, #32
 800028a:	f10e 0e20 	add.w	lr, lr, #32
 800028e:	2a01      	cmp	r2, #1
 8000290:	fa03 fc0e 	lsl.w	ip, r3, lr
 8000294:	bf28      	it	cs
 8000296:	f04c 0c02 	orrcs.w	ip, ip, #2
 800029a:	fa43 f305 	asr.w	r3, r3, r5
 800029e:	18c0      	adds	r0, r0, r3
 80002a0:	eb51 71e3 	adcs.w	r1, r1, r3, asr #31
 80002a4:	f001 4500 	and.w	r5, r1, #2147483648	@ 0x80000000
 80002a8:	d507      	bpl.n	80002ba <__adddf3+0xe6>
 80002aa:	f04f 0e00 	mov.w	lr, #0
 80002ae:	f1dc 0c00 	rsbs	ip, ip, #0
 80002b2:	eb7e 0000 	sbcs.w	r0, lr, r0
 80002b6:	eb6e 0101 	sbc.w	r1, lr, r1
 80002ba:	f5b1 1f80 	cmp.w	r1, #1048576	@ 0x100000
 80002be:	d31b      	bcc.n	80002f8 <__adddf3+0x124>
 80002c0:	f5b1 1f00 	cmp.w	r1, #2097152	@ 0x200000
 80002c4:	d30c      	bcc.n	80002e0 <__adddf3+0x10c>
 80002c6:	0849      	lsrs	r1, r1, #1
 80002c8:	ea5f 0030 	movs.w	r0, r0, rrx
 80002cc:	ea4f 0c3c 	mov.w	ip, ip, rrx
 80002d0:	f104 0401 	add.w	r4, r4, #1
 80002d4:	ea4f 5244 	mov.w	r2, r4, lsl #21
 80002d8:	f512 0f80 	cmn.w	r2, #4194304	@ 0x400000
 80002dc:	f080 809a 	bcs.w	8000414 <__adddf3+0x240>
 80002e0:	f1bc 4f00 	cmp.w	ip, #2147483648	@ 0x80000000
 80002e4:	bf08      	it	eq
 80002e6:	ea5f 0c50 	movseq.w	ip, r0, lsr #1
 80002ea:	f150 0000 	adcs.w	r0, r0, #0
 80002ee:	eb41 5104 	adc.w	r1, r1, r4, lsl #20
 80002f2:	ea41 0105 	orr.w	r1, r1, r5
 80002f6:	bd30      	pop	{r4, r5, pc}
 80002f8:	ea5f 0c4c 	movs.w	ip, ip, lsl #1
 80002fc:	4140      	adcs	r0, r0
 80002fe:	eb41 0101 	adc.w	r1, r1, r1
 8000302:	3c01      	subs	r4, #1
 8000304:	bf28      	it	cs
 8000306:	f5b1 1f80 	cmpcs.w	r1, #1048576	@ 0x100000
 800030a:	d2e9      	bcs.n	80002e0 <__adddf3+0x10c>
 800030c:	f091 0f00 	teq	r1, #0
 8000310:	bf04      	itt	eq
 8000312:	4601      	moveq	r1, r0
 8000314:	2000      	moveq	r0, #0
 8000316:	fab1 f381 	clz	r3, r1
 800031a:	bf08      	it	eq
 800031c:	3320      	addeq	r3, #32
 800031e:	f1a3 030b 	sub.w	r3, r3, #11
 8000322:	f1b3 0220 	subs.w	r2, r3, #32
 8000326:	da0c      	bge.n	8000342 <__adddf3+0x16e>
 8000328:	320c      	adds	r2, #12
 800032a:	dd08      	ble.n	800033e <__adddf3+0x16a>
 800032c:	f102 0c14 	add.w	ip, r2, #20
 8000330:	f1c2 020c 	rsb	r2, r2, #12
 8000334:	fa01 f00c 	lsl.w	r0, r1, ip
 8000338:	fa21 f102 	lsr.w	r1, r1, r2
 800033c:	e00c      	b.n	8000358 <__adddf3+0x184>
 800033e:	f102 0214 	add.w	r2, r2, #20
 8000342:	bfd8      	it	le
 8000344:	f1c2 0c20 	rsble	ip, r2, #32
 8000348:	fa01 f102 	lsl.w	r1, r1, r2
 800034c:	fa20 fc0c 	lsr.w	ip, r0, ip
 8000350:	bfdc      	itt	le
 8000352:	ea41 010c 	orrle.w	r1, r1, ip
 8000356:	4090      	lslle	r0, r2
 8000358:	1ae4      	subs	r4, r4, r3
 800035a:	bfa2      	ittt	ge
 800035c:	eb01 5104 	addge.w	r1, r1, r4, lsl #20
 8000360:	4329      	orrge	r1, r5
 8000362:	bd30      	popge	{r4, r5, pc}
 8000364:	ea6f 0404 	mvn.w	r4, r4
 8000368:	3c1f      	subs	r4, #31
 800036a:	da1c      	bge.n	80003a6 <__adddf3+0x1d2>
 800036c:	340c      	adds	r4, #12
 800036e:	dc0e      	bgt.n	800038e <__adddf3+0x1ba>
 8000370:	f104 0414 	add.w	r4, r4, #20
 8000374:	f1c4 0220 	rsb	r2, r4, #32
 8000378:	fa20 f004 	lsr.w	r0, r0, r4
 800037c:	fa01 f302 	lsl.w	r3, r1, r2
 8000380:	ea40 0003 	orr.w	r0, r0, r3
 8000384:	fa21 f304 	lsr.w	r3, r1, r4
 8000388:	ea45 0103 	orr.w	r1, r5, r3
 800038c:	bd30      	pop	{r4, r5, pc}
 800038e:	f1c4 040c 	rsb	r4, r4, #12
 8000392:	f1c4 0220 	rsb	r2, r4, #32
 8000396:	fa20 f002 	lsr.w	r0, r0, r2
 800039a:	fa01 f304 	lsl.w	r3, r1, r4
 800039e:	ea40 0003 	orr.w	r0, r0, r3
 80003a2:	4629      	mov	r1, r5
 80003a4:	bd30      	pop	{r4, r5, pc}
 80003a6:	fa21 f004 	lsr.w	r0, r1, r4
 80003aa:	4629      	mov	r1, r5
 80003ac:	bd30      	pop	{r4, r5, pc}
 80003ae:	f094 0f00 	teq	r4, #0
 80003b2:	f483 1380 	eor.w	r3, r3, #1048576	@ 0x100000
 80003b6:	bf06      	itte	eq
 80003b8:	f481 1180 	eoreq.w	r1, r1, #1048576	@ 0x100000
 80003bc:	3401      	addeq	r4, #1
 80003be:	3d01      	subne	r5, #1
 80003c0:	e74e      	b.n	8000260 <__adddf3+0x8c>
 80003c2:	ea7f 5c64 	mvns.w	ip, r4, asr #21
 80003c6:	bf18      	it	ne
 80003c8:	ea7f 5c65 	mvnsne.w	ip, r5, asr #21
 80003cc:	d029      	beq.n	8000422 <__adddf3+0x24e>
 80003ce:	ea94 0f05 	teq	r4, r5
 80003d2:	bf08      	it	eq
 80003d4:	ea90 0f02 	teqeq	r0, r2
 80003d8:	d005      	beq.n	80003e6 <__adddf3+0x212>
 80003da:	ea54 0c00 	orrs.w	ip, r4, r0
 80003de:	bf04      	itt	eq
 80003e0:	4619      	moveq	r1, r3
 80003e2:	4610      	moveq	r0, r2
 80003e4:	bd30      	pop	{r4, r5, pc}
 80003e6:	ea91 0f03 	teq	r1, r3
 80003ea:	bf1e      	ittt	ne
 80003ec:	2100      	movne	r1, #0
 80003ee:	2000      	movne	r0, #0
 80003f0:	bd30      	popne	{r4, r5, pc}
 80003f2:	ea5f 5c54 	movs.w	ip, r4, lsr #21
 80003f6:	d105      	bne.n	8000404 <__adddf3+0x230>
 80003f8:	0040      	lsls	r0, r0, #1
 80003fa:	4149      	adcs	r1, r1
 80003fc:	bf28      	it	cs
 80003fe:	f041 4100 	orrcs.w	r1, r1, #2147483648	@ 0x80000000
 8000402:	bd30      	pop	{r4, r5, pc}
 8000404:	f514 0480 	adds.w	r4, r4, #4194304	@ 0x400000
 8000408:	bf3c      	itt	cc
 800040a:	f501 1180 	addcc.w	r1, r1, #1048576	@ 0x100000
 800040e:	bd30      	popcc	{r4, r5, pc}
 8000410:	f001 4500 	and.w	r5, r1, #2147483648	@ 0x80000000
 8000414:	f045 41fe 	orr.w	r1, r5, #2130706432	@ 0x7f000000
 8000418:	f441 0170 	orr.w	r1, r1, #15728640	@ 0xf00000
 800041c:	f04f 0000 	mov.w	r0, #0
 8000420:	bd30      	pop	{r4, r5, pc}
 8000422:	ea7f 5c64 	mvns.w	ip, r4, asr #21
 8000426:	bf1a      	itte	ne
 8000428:	4619      	movne	r1, r3
 800042a:	4610      	movne	r0, r2
 800042c:	ea7f 5c65 	mvnseq.w	ip, r5, asr #21
 8000430:	bf1c      	itt	ne
 8000432:	460b      	movne	r3, r1
 8000434:	4602      	movne	r2, r0
 8000436:	ea50 3401 	orrs.w	r4, r0, r1, lsl #12
 800043a:	bf06      	itte	eq
 800043c:	ea52 3503 	orrseq.w	r5, r2, r3, lsl #12
 8000440:	ea91 0f03 	teqeq	r1, r3
 8000444:	f441 2100 	orrne.w	r1, r1, #524288	@ 0x80000
 8000448:	bd30      	pop	{r4, r5, pc}
 800044a:	bf00      	nop

0800044c <__aeabi_ui2d>:
 800044c:	f090 0f00 	teq	r0, #0
 8000450:	bf04      	itt	eq
 8000452:	2100      	moveq	r1, #0
 8000454:	4770      	bxeq	lr
 8000456:	b530      	push	{r4, r5, lr}
 8000458:	f44f 6480 	mov.w	r4, #1024	@ 0x400
 800045c:	f104 0432 	add.w	r4, r4, #50	@ 0x32
 8000460:	f04f 0500 	mov.w	r5, #0
 8000464:	f04f 0100 	mov.w	r1, #0
 8000468:	e750      	b.n	800030c <__adddf3+0x138>
 800046a:	bf00      	nop

0800046c <__aeabi_i2d>:
 800046c:	f090 0f00 	teq	r0, #0
 8000470:	bf04      	itt	eq
 8000472:	2100      	moveq	r1, #0
 8000474:	4770      	bxeq	lr
 8000476:	b530      	push	{r4, r5, lr}
 8000478:	f44f 6480 	mov.w	r4, #1024	@ 0x400
 800047c:	f104 0432 	add.w	r4, r4, #50	@ 0x32
 8000480:	f010 4500 	ands.w	r5, r0, #2147483648	@ 0x80000000
 8000484:	bf48      	it	mi
 8000486:	4240      	negmi	r0, r0
 8000488:	f04f 0100 	mov.w	r1, #0
 800048c:	e73e      	b.n	800030c <__adddf3+0x138>
 800048e:	bf00      	nop

08000490 <__aeabi_f2d>:
 8000490:	0042      	lsls	r2, r0, #1
 8000492:	ea4f 01e2 	mov.w	r1, r2, asr #3
 8000496:	ea4f 0131 	mov.w	r1, r1, rrx
 800049a:	ea4f 7002 	mov.w	r0, r2, lsl #28
 800049e:	bf1f      	itttt	ne
 80004a0:	f012 437f 	andsne.w	r3, r2, #4278190080	@ 0xff000000
 80004a4:	f093 4f7f 	teqne	r3, #4278190080	@ 0xff000000
 80004a8:	f081 5160 	eorne.w	r1, r1, #939524096	@ 0x38000000
 80004ac:	4770      	bxne	lr
 80004ae:	f032 427f 	bics.w	r2, r2, #4278190080	@ 0xff000000
 80004b2:	bf08      	it	eq
 80004b4:	4770      	bxeq	lr
 80004b6:	f093 4f7f 	teq	r3, #4278190080	@ 0xff000000
 80004ba:	bf04      	itt	eq
 80004bc:	f441 2100 	orreq.w	r1, r1, #524288	@ 0x80000
 80004c0:	4770      	bxeq	lr
 80004c2:	b530      	push	{r4, r5, lr}
 80004c4:	f44f 7460 	mov.w	r4, #896	@ 0x380
 80004c8:	f001 4500 	and.w	r5, r1, #2147483648	@ 0x80000000
 80004cc:	f021 4100 	bic.w	r1, r1, #2147483648	@ 0x80000000
 80004d0:	e71c      	b.n	800030c <__adddf3+0x138>
 80004d2:	bf00      	nop

080004d4 <__aeabi_ul2d>:
 80004d4:	ea50 0201 	orrs.w	r2, r0, r1
 80004d8:	bf08      	it	eq
 80004da:	4770      	bxeq	lr
 80004dc:	b530      	push	{r4, r5, lr}
 80004de:	f04f 0500 	mov.w	r5, #0
 80004e2:	e00a      	b.n	80004fa <__aeabi_l2d+0x16>

080004e4 <__aeabi_l2d>:
 80004e4:	ea50 0201 	orrs.w	r2, r0, r1
 80004e8:	bf08      	it	eq
 80004ea:	4770      	bxeq	lr
 80004ec:	b530      	push	{r4, r5, lr}
 80004ee:	f011 4500 	ands.w	r5, r1, #2147483648	@ 0x80000000
 80004f2:	d502      	bpl.n	80004fa <__aeabi_l2d+0x16>
 80004f4:	4240      	negs	r0, r0
 80004f6:	eb61 0141 	sbc.w	r1, r1, r1, lsl #1
 80004fa:	f44f 6480 	mov.w	r4, #1024	@ 0x400
 80004fe:	f104 0432 	add.w	r4, r4, #50	@ 0x32
 8000502:	ea5f 5c91 	movs.w	ip, r1, lsr #22
 8000506:	f43f aed8 	beq.w	80002ba <__adddf3+0xe6>
 800050a:	f04f 0203 	mov.w	r2, #3
 800050e:	ea5f 0cdc 	movs.w	ip, ip, lsr #3
 8000512:	bf18      	it	ne
 8000514:	3203      	addne	r2, #3
 8000516:	ea5f 0cdc 	movs.w	ip, ip, lsr #3
 800051a:	bf18      	it	ne
 800051c:	3203      	addne	r2, #3
 800051e:	eb02 02dc 	add.w	r2, r2, ip, lsr #3
 8000522:	f1c2 0320 	rsb	r3, r2, #32
 8000526:	fa00 fc03 	lsl.w	ip, r0, r3
 800052a:	fa20 f002 	lsr.w	r0, r0, r2
 800052e:	fa01 fe03 	lsl.w	lr, r1, r3
 8000532:	ea40 000e 	orr.w	r0, r0, lr
 8000536:	fa21 f102 	lsr.w	r1, r1, r2
 800053a:	4414      	add	r4, r2
 800053c:	e6bd      	b.n	80002ba <__adddf3+0xe6>
 800053e:	bf00      	nop

08000540 <__aeabi_dmul>:
 8000540:	b570      	push	{r4, r5, r6, lr}
 8000542:	f04f 0cff 	mov.w	ip, #255	@ 0xff
 8000546:	f44c 6ce0 	orr.w	ip, ip, #1792	@ 0x700
 800054a:	ea1c 5411 	ands.w	r4, ip, r1, lsr #20
 800054e:	bf1d      	ittte	ne
 8000550:	ea1c 5513 	andsne.w	r5, ip, r3, lsr #20
 8000554:	ea94 0f0c 	teqne	r4, ip
 8000558:	ea95 0f0c 	teqne	r5, ip
 800055c:	f000 f8de 	bleq	800071c <__aeabi_dmul+0x1dc>
 8000560:	442c      	add	r4, r5
 8000562:	ea81 0603 	eor.w	r6, r1, r3
 8000566:	ea21 514c 	bic.w	r1, r1, ip, lsl #21
 800056a:	ea23 534c 	bic.w	r3, r3, ip, lsl #21
 800056e:	ea50 3501 	orrs.w	r5, r0, r1, lsl #12
 8000572:	bf18      	it	ne
 8000574:	ea52 3503 	orrsne.w	r5, r2, r3, lsl #12
 8000578:	f441 1180 	orr.w	r1, r1, #1048576	@ 0x100000
 800057c:	f443 1380 	orr.w	r3, r3, #1048576	@ 0x100000
 8000580:	d038      	beq.n	80005f4 <__aeabi_dmul+0xb4>
 8000582:	fba0 ce02 	umull	ip, lr, r0, r2
 8000586:	f04f 0500 	mov.w	r5, #0
 800058a:	fbe1 e502 	umlal	lr, r5, r1, r2
 800058e:	f006 4200 	and.w	r2, r6, #2147483648	@ 0x80000000
 8000592:	fbe0 e503 	umlal	lr, r5, r0, r3
 8000596:	f04f 0600 	mov.w	r6, #0
 800059a:	fbe1 5603 	umlal	r5, r6, r1, r3
 800059e:	f09c 0f00 	teq	ip, #0
 80005a2:	bf18      	it	ne
 80005a4:	f04e 0e01 	orrne.w	lr, lr, #1
 80005a8:	f1a4 04ff 	sub.w	r4, r4, #255	@ 0xff
 80005ac:	f5b6 7f00 	cmp.w	r6, #512	@ 0x200
 80005b0:	f564 7440 	sbc.w	r4, r4, #768	@ 0x300
 80005b4:	d204      	bcs.n	80005c0 <__aeabi_dmul+0x80>
 80005b6:	ea5f 0e4e 	movs.w	lr, lr, lsl #1
 80005ba:	416d      	adcs	r5, r5
 80005bc:	eb46 0606 	adc.w	r6, r6, r6
 80005c0:	ea42 21c6 	orr.w	r1, r2, r6, lsl #11
 80005c4:	ea41 5155 	orr.w	r1, r1, r5, lsr #21
 80005c8:	ea4f 20c5 	mov.w	r0, r5, lsl #11
 80005cc:	ea40 505e 	orr.w	r0, r0, lr, lsr #21
 80005d0:	ea4f 2ece 	mov.w	lr, lr, lsl #11
 80005d4:	f1b4 0cfd 	subs.w	ip, r4, #253	@ 0xfd
 80005d8:	bf88      	it	hi
 80005da:	f5bc 6fe0 	cmphi.w	ip, #1792	@ 0x700
 80005de:	d81e      	bhi.n	800061e <__aeabi_dmul+0xde>
 80005e0:	f1be 4f00 	cmp.w	lr, #2147483648	@ 0x80000000
 80005e4:	bf08      	it	eq
 80005e6:	ea5f 0e50 	movseq.w	lr, r0, lsr #1
 80005ea:	f150 0000 	adcs.w	r0, r0, #0
 80005ee:	eb41 5104 	adc.w	r1, r1, r4, lsl #20
 80005f2:	bd70      	pop	{r4, r5, r6, pc}
 80005f4:	f006 4600 	and.w	r6, r6, #2147483648	@ 0x80000000
 80005f8:	ea46 0101 	orr.w	r1, r6, r1
 80005fc:	ea40 0002 	orr.w	r0, r0, r2
 8000600:	ea81 0103 	eor.w	r1, r1, r3
 8000604:	ebb4 045c 	subs.w	r4, r4, ip, lsr #1
 8000608:	bfc2      	ittt	gt
 800060a:	ebd4 050c 	rsbsgt	r5, r4, ip
 800060e:	ea41 5104 	orrgt.w	r1, r1, r4, lsl #20
 8000612:	bd70      	popgt	{r4, r5, r6, pc}
 8000614:	f441 1180 	orr.w	r1, r1, #1048576	@ 0x100000
 8000618:	f04f 0e00 	mov.w	lr, #0
 800061c:	3c01      	subs	r4, #1
 800061e:	f300 80ab 	bgt.w	8000778 <__aeabi_dmul+0x238>
 8000622:	f114 0f36 	cmn.w	r4, #54	@ 0x36
 8000626:	bfde      	ittt	le
 8000628:	2000      	movle	r0, #0
 800062a:	f001 4100 	andle.w	r1, r1, #2147483648	@ 0x80000000
 800062e:	bd70      	pople	{r4, r5, r6, pc}
 8000630:	f1c4 0400 	rsb	r4, r4, #0
 8000634:	3c20      	subs	r4, #32
 8000636:	da35      	bge.n	80006a4 <__aeabi_dmul+0x164>
 8000638:	340c      	adds	r4, #12
 800063a:	dc1b      	bgt.n	8000674 <__aeabi_dmul+0x134>
 800063c:	f104 0414 	add.w	r4, r4, #20
 8000640:	f1c4 0520 	rsb	r5, r4, #32
 8000644:	fa00 f305 	lsl.w	r3, r0, r5
 8000648:	fa20 f004 	lsr.w	r0, r0, r4
 800064c:	fa01 f205 	lsl.w	r2, r1, r5
 8000650:	ea40 0002 	orr.w	r0, r0, r2
 8000654:	f001 4200 	and.w	r2, r1, #2147483648	@ 0x80000000
 8000658:	f021 4100 	bic.w	r1, r1, #2147483648	@ 0x80000000
 800065c:	eb10 70d3 	adds.w	r0, r0, r3, lsr #31
 8000660:	fa21 f604 	lsr.w	r6, r1, r4
 8000664:	eb42 0106 	adc.w	r1, r2, r6
 8000668:	ea5e 0e43 	orrs.w	lr, lr, r3, lsl #1
 800066c:	bf08      	it	eq
 800066e:	ea20 70d3 	biceq.w	r0, r0, r3, lsr #31
 8000672:	bd70      	pop	{r4, r5, r6, pc}
 8000674:	f1c4 040c 	rsb	r4, r4, #12
 8000678:	f1c4 0520 	rsb	r5, r4, #32
 800067c:	fa00 f304 	lsl.w	r3, r0, r4
 8000680:	fa20 f005 	lsr.w	r0, r0, r5
 8000684:	fa01 f204 	lsl.w	r2, r1, r4
 8000688:	ea40 0002 	orr.w	r0, r0, r2
 800068c:	f001 4100 	and.w	r1, r1, #2147483648	@ 0x80000000
 8000690:	eb10 70d3 	adds.w	r0, r0, r3, lsr #31
 8000694:	f141 0100 	adc.w	r1, r1, #0
 8000698:	ea5e 0e43 	orrs.w	lr, lr, r3, lsl #1
 800069c:	bf08      	it	eq
 800069e:	ea20 70d3 	biceq.w	r0, r0, r3, lsr #31
 80006a2:	bd70      	pop	{r4, r5, r6, pc}
 80006a4:	f1c4 0520 	rsb	r5, r4, #32
 80006a8:	fa00 f205 	lsl.w	r2, r0, r5
 80006ac:	ea4e 0e02 	orr.w	lr, lr, r2
 80006b0:	fa20 f304 	lsr.w	r3, r0, r4
 80006b4:	fa01 f205 	lsl.w	r2, r1, r5
 80006b8:	ea43 0302 	orr.w	r3, r3, r2
 80006bc:	fa21 f004 	lsr.w	r0, r1, r4
 80006c0:	f001 4100 	and.w	r1, r1, #2147483648	@ 0x80000000
 80006c4:	fa21 f204 	lsr.w	r2, r1, r4
 80006c8:	ea20 0002 	bic.w	r0, r0, r2
 80006cc:	eb00 70d3 	add.w	r0, r0, r3, lsr #31
 80006d0:	ea5e 0e43 	orrs.w	lr, lr, r3, lsl #1
 80006d4:	bf08      	it	eq
 80006d6:	ea20 70d3 	biceq.w	r0, r0, r3, lsr #31
 80006da:	bd70      	pop	{r4, r5, r6, pc}
 80006dc:	f094 0f00 	teq	r4, #0
 80006e0:	d10f      	bne.n	8000702 <__aeabi_dmul+0x1c2>
 80006e2:	f001 4600 	and.w	r6, r1, #2147483648	@ 0x80000000
 80006e6:	0040      	lsls	r0, r0, #1
 80006e8:	eb41 0101 	adc.w	r1, r1, r1
 80006ec:	f411 1f80 	tst.w	r1, #1048576	@ 0x100000
 80006f0:	bf08      	it	eq
 80006f2:	3c01      	subeq	r4, #1
 80006f4:	d0f7      	beq.n	80006e6 <__aeabi_dmul+0x1a6>
 80006f6:	ea41 0106 	orr.w	r1, r1, r6
 80006fa:	f095 0f00 	teq	r5, #0
 80006fe:	bf18      	it	ne
 8000700:	4770      	bxne	lr
 8000702:	f003 4600 	and.w	r6, r3, #2147483648	@ 0x80000000
 8000706:	0052      	lsls	r2, r2, #1
 8000708:	eb43 0303 	adc.w	r3, r3, r3
 800070c:	f413 1f80 	tst.w	r3, #1048576	@ 0x100000
 8000710:	bf08      	it	eq
 8000712:	3d01      	subeq	r5, #1
 8000714:	d0f7      	beq.n	8000706 <__aeabi_dmul+0x1c6>
 8000716:	ea43 0306 	orr.w	r3, r3, r6
 800071a:	4770      	bx	lr
 800071c:	ea94 0f0c 	teq	r4, ip
 8000720:	ea0c 5513 	and.w	r5, ip, r3, lsr #20
 8000724:	bf18      	it	ne
 8000726:	ea95 0f0c 	teqne	r5, ip
 800072a:	d00c      	beq.n	8000746 <__aeabi_dmul+0x206>
 800072c:	ea50 0641 	orrs.w	r6, r0, r1, lsl #1
 8000730:	bf18      	it	ne
 8000732:	ea52 0643 	orrsne.w	r6, r2, r3, lsl #1
 8000736:	d1d1      	bne.n	80006dc <__aeabi_dmul+0x19c>
 8000738:	ea81 0103 	eor.w	r1, r1, r3
 800073c:	f001 4100 	and.w	r1, r1, #2147483648	@ 0x80000000
 8000740:	f04f 0000 	mov.w	r0, #0
 8000744:	bd70      	pop	{r4, r5, r6, pc}
 8000746:	ea50 0641 	orrs.w	r6, r0, r1, lsl #1
 800074a:	bf06      	itte	eq
 800074c:	4610      	moveq	r0, r2
 800074e:	4619      	moveq	r1, r3
 8000750:	ea52 0643 	orrsne.w	r6, r2, r3, lsl #1
 8000754:	d019      	beq.n	800078a <__aeabi_dmul+0x24a>
 8000756:	ea94 0f0c 	teq	r4, ip
 800075a:	d102      	bne.n	8000762 <__aeabi_dmul+0x222>
 800075c:	ea50 3601 	orrs.w	r6, r0, r1, lsl #12
 8000760:	d113      	bne.n	800078a <__aeabi_dmul+0x24a>
 8000762:	ea95 0f0c 	teq	r5, ip
 8000766:	d105      	bne.n	8000774 <__aeabi_dmul+0x234>
 8000768:	ea52 3603 	orrs.w	r6, r2, r3, lsl #12
 800076c:	bf1c      	itt	ne
 800076e:	4610      	movne	r0, r2
 8000770:	4619      	movne	r1, r3
 8000772:	d10a      	bne.n	800078a <__aeabi_dmul+0x24a>
 8000774:	ea81 0103 	eor.w	r1, r1, r3
 8000778:	f001 4100 	and.w	r1, r1, #2147483648	@ 0x80000000
 800077c:	f041 41fe 	orr.w	r1, r1, #2130706432	@ 0x7f000000
 8000780:	f441 0170 	orr.w	r1, r1, #15728640	@ 0xf00000
 8000784:	f04f 0000 	mov.w	r0, #0
 8000788:	bd70      	pop	{r4, r5, r6, pc}
 800078a:	f041 41fe 	orr.w	r1, r1, #2130706432	@ 0x7f000000
 800078e:	f441 0178 	orr.w	r1, r1, #16252928	@ 0xf80000
 8000792:	bd70      	pop	{r4, r5, r6, pc}

08000794 <__aeabi_ddiv>:
 8000794:	b570      	push	{r4, r5, r6, lr}
 8000796:	f04f 0cff 	mov.w	ip, #255	@ 0xff
 800079a:	f44c 6ce0 	orr.w	ip, ip, #1792	@ 0x700
 800079e:	ea1c 5411 	ands.w	r4, ip, r1, lsr #20
 80007a2:	bf1d      	ittte	ne
 80007a4:	ea1c 5513 	andsne.w	r5, ip, r3, lsr #20
 80007a8:	ea94 0f0c 	teqne	r4, ip
 80007ac:	ea95 0f0c 	teqne	r5, ip
 80007b0:	f000 f8a7 	bleq	8000902 <__aeabi_ddiv+0x16e>
 80007b4:	eba4 0405 	sub.w	r4, r4, r5
 80007b8:	ea81 0e03 	eor.w	lr, r1, r3
 80007bc:	ea52 3503 	orrs.w	r5, r2, r3, lsl #12
 80007c0:	ea4f 3101 	mov.w	r1, r1, lsl #12
 80007c4:	f000 8088 	beq.w	80008d8 <__aeabi_ddiv+0x144>
 80007c8:	ea4f 3303 	mov.w	r3, r3, lsl #12
 80007cc:	f04f 5580 	mov.w	r5, #268435456	@ 0x10000000
 80007d0:	ea45 1313 	orr.w	r3, r5, r3, lsr #4
 80007d4:	ea43 6312 	orr.w	r3, r3, r2, lsr #24
 80007d8:	ea4f 2202 	mov.w	r2, r2, lsl #8
 80007dc:	ea45 1511 	orr.w	r5, r5, r1, lsr #4
 80007e0:	ea45 6510 	orr.w	r5, r5, r0, lsr #24
 80007e4:	ea4f 2600 	mov.w	r6, r0, lsl #8
 80007e8:	f00e 4100 	and.w	r1, lr, #2147483648	@ 0x80000000
 80007ec:	429d      	cmp	r5, r3
 80007ee:	bf08      	it	eq
 80007f0:	4296      	cmpeq	r6, r2
 80007f2:	f144 04fd 	adc.w	r4, r4, #253	@ 0xfd
 80007f6:	f504 7440 	add.w	r4, r4, #768	@ 0x300
 80007fa:	d202      	bcs.n	8000802 <__aeabi_ddiv+0x6e>
 80007fc:	085b      	lsrs	r3, r3, #1
 80007fe:	ea4f 0232 	mov.w	r2, r2, rrx
 8000802:	1ab6      	subs	r6, r6, r2
 8000804:	eb65 0503 	sbc.w	r5, r5, r3
 8000808:	085b      	lsrs	r3, r3, #1
 800080a:	ea4f 0232 	mov.w	r2, r2, rrx
 800080e:	f44f 1080 	mov.w	r0, #1048576	@ 0x100000
 8000812:	f44f 2c00 	mov.w	ip, #524288	@ 0x80000
 8000816:	ebb6 0e02 	subs.w	lr, r6, r2
 800081a:	eb75 0e03 	sbcs.w	lr, r5, r3
 800081e:	bf22      	ittt	cs
 8000820:	1ab6      	subcs	r6, r6, r2
 8000822:	4675      	movcs	r5, lr
 8000824:	ea40 000c 	orrcs.w	r0, r0, ip
 8000828:	085b      	lsrs	r3, r3, #1
 800082a:	ea4f 0232 	mov.w	r2, r2, rrx
 800082e:	ebb6 0e02 	subs.w	lr, r6, r2
 8000832:	eb75 0e03 	sbcs.w	lr, r5, r3
 8000836:	bf22      	ittt	cs
 8000838:	1ab6      	subcs	r6, r6, r2
 800083a:	4675      	movcs	r5, lr
 800083c:	ea40 005c 	orrcs.w	r0, r0, ip, lsr #1
 8000840:	085b      	lsrs	r3, r3, #1
 8000842:	ea4f 0232 	mov.w	r2, r2, rrx
 8000846:	ebb6 0e02 	subs.w	lr, r6, r2
 800084a:	eb75 0e03 	sbcs.w	lr, r5, r3
 800084e:	bf22      	ittt	cs
 8000850:	1ab6      	subcs	r6, r6, r2
 8000852:	4675      	movcs	r5, lr
 8000854:	ea40 009c 	orrcs.w	r0, r0, ip, lsr #2
 8000858:	085b      	lsrs	r3, r3, #1
 800085a:	ea4f 0232 	mov.w	r2, r2, rrx
 800085e:	ebb6 0e02 	subs.w	lr, r6, r2
 8000862:	eb75 0e03 	sbcs.w	lr, r5, r3
 8000866:	bf22      	ittt	cs
 8000868:	1ab6      	subcs	r6, r6, r2
 800086a:	4675      	movcs	r5, lr
 800086c:	ea40 00dc 	orrcs.w	r0, r0, ip, lsr #3
 8000870:	ea55 0e06 	orrs.w	lr, r5, r6
 8000874:	d018      	beq.n	80008a8 <__aeabi_ddiv+0x114>
 8000876:	ea4f 1505 	mov.w	r5, r5, lsl #4
 800087a:	ea45 7516 	orr.w	r5, r5, r6, lsr #28
 800087e:	ea4f 1606 	mov.w	r6, r6, lsl #4
 8000882:	ea4f 03c3 	mov.w	r3, r3, lsl #3
 8000886:	ea43 7352 	orr.w	r3, r3, r2, lsr #29
 800088a:	ea4f 02c2 	mov.w	r2, r2, lsl #3
 800088e:	ea5f 1c1c 	movs.w	ip, ip, lsr #4
 8000892:	d1c0      	bne.n	8000816 <__aeabi_ddiv+0x82>
 8000894:	f411 1f80 	tst.w	r1, #1048576	@ 0x100000
 8000898:	d10b      	bne.n	80008b2 <__aeabi_ddiv+0x11e>
 800089a:	ea41 0100 	orr.w	r1, r1, r0
 800089e:	f04f 0000 	mov.w	r0, #0
 80008a2:	f04f 4c00 	mov.w	ip, #2147483648	@ 0x80000000
 80008a6:	e7b6      	b.n	8000816 <__aeabi_ddiv+0x82>
 80008a8:	f411 1f80 	tst.w	r1, #1048576	@ 0x100000
 80008ac:	bf04      	itt	eq
 80008ae:	4301      	orreq	r1, r0
 80008b0:	2000      	moveq	r0, #0
 80008b2:	f1b4 0cfd 	subs.w	ip, r4, #253	@ 0xfd
 80008b6:	bf88      	it	hi
 80008b8:	f5bc 6fe0 	cmphi.w	ip, #1792	@ 0x700
 80008bc:	f63f aeaf 	bhi.w	800061e <__aeabi_dmul+0xde>
 80008c0:	ebb5 0c03 	subs.w	ip, r5, r3
 80008c4:	bf04      	itt	eq
 80008c6:	ebb6 0c02 	subseq.w	ip, r6, r2
 80008ca:	ea5f 0c50 	movseq.w	ip, r0, lsr #1
 80008ce:	f150 0000 	adcs.w	r0, r0, #0
 80008d2:	eb41 5104 	adc.w	r1, r1, r4, lsl #20
 80008d6:	bd70      	pop	{r4, r5, r6, pc}
 80008d8:	f00e 4e00 	and.w	lr, lr, #2147483648	@ 0x80000000
 80008dc:	ea4e 3111 	orr.w	r1, lr, r1, lsr #12
 80008e0:	eb14 045c 	adds.w	r4, r4, ip, lsr #1
 80008e4:	bfc2      	ittt	gt
 80008e6:	ebd4 050c 	rsbsgt	r5, r4, ip
 80008ea:	ea41 5104 	orrgt.w	r1, r1, r4, lsl #20
 80008ee:	bd70      	popgt	{r4, r5, r6, pc}
 80008f0:	f441 1180 	orr.w	r1, r1, #1048576	@ 0x100000
 80008f4:	f04f 0e00 	mov.w	lr, #0
 80008f8:	3c01      	subs	r4, #1
 80008fa:	e690      	b.n	800061e <__aeabi_dmul+0xde>
 80008fc:	ea45 0e06 	orr.w	lr, r5, r6
 8000900:	e68d      	b.n	800061e <__aeabi_dmul+0xde>
 8000902:	ea0c 5513 	and.w	r5, ip, r3, lsr #20
 8000906:	ea94 0f0c 	teq	r4, ip
 800090a:	bf08      	it	eq
 800090c:	ea95 0f0c 	teqeq	r5, ip
 8000910:	f43f af3b 	beq.w	800078a <__aeabi_dmul+0x24a>
 8000914:	ea94 0f0c 	teq	r4, ip
 8000918:	d10a      	bne.n	8000930 <__aeabi_ddiv+0x19c>
 800091a:	ea50 3401 	orrs.w	r4, r0, r1, lsl #12
 800091e:	f47f af34 	bne.w	800078a <__aeabi_dmul+0x24a>
 8000922:	ea95 0f0c 	teq	r5, ip
 8000926:	f47f af25 	bne.w	8000774 <__aeabi_dmul+0x234>
 800092a:	4610      	mov	r0, r2
 800092c:	4619      	mov	r1, r3
 800092e:	e72c      	b.n	800078a <__aeabi_dmul+0x24a>
 8000930:	ea95 0f0c 	teq	r5, ip
 8000934:	d106      	bne.n	8000944 <__aeabi_ddiv+0x1b0>
 8000936:	ea52 3503 	orrs.w	r5, r2, r3, lsl #12
 800093a:	f43f aefd 	beq.w	8000738 <__aeabi_dmul+0x1f8>
 800093e:	4610      	mov	r0, r2
 8000940:	4619      	mov	r1, r3
 8000942:	e722      	b.n	800078a <__aeabi_dmul+0x24a>
 8000944:	ea50 0641 	orrs.w	r6, r0, r1, lsl #1
 8000948:	bf18      	it	ne
 800094a:	ea52 0643 	orrsne.w	r6, r2, r3, lsl #1
 800094e:	f47f aec5 	bne.w	80006dc <__aeabi_dmul+0x19c>
 8000952:	ea50 0441 	orrs.w	r4, r0, r1, lsl #1
 8000956:	f47f af0d 	bne.w	8000774 <__aeabi_dmul+0x234>
 800095a:	ea52 0543 	orrs.w	r5, r2, r3, lsl #1
 800095e:	f47f aeeb 	bne.w	8000738 <__aeabi_dmul+0x1f8>
 8000962:	e712      	b.n	800078a <__aeabi_dmul+0x24a>

08000964 <__gedf2>:
 8000964:	f04f 3cff 	mov.w	ip, #4294967295	@ 0xffffffff
 8000968:	e006      	b.n	8000978 <__cmpdf2+0x4>
 800096a:	bf00      	nop

0800096c <__ledf2>:
 800096c:	f04f 0c01 	mov.w	ip, #1
 8000970:	e002      	b.n	8000978 <__cmpdf2+0x4>
 8000972:	bf00      	nop

08000974 <__cmpdf2>:
 8000974:	f04f 0c01 	mov.w	ip, #1
 8000978:	f84d cd04 	str.w	ip, [sp, #-4]!
 800097c:	ea4f 0c41 	mov.w	ip, r1, lsl #1
 8000980:	ea7f 5c6c 	mvns.w	ip, ip, asr #21
 8000984:	ea4f 0c43 	mov.w	ip, r3, lsl #1
 8000988:	bf18      	it	ne
 800098a:	ea7f 5c6c 	mvnsne.w	ip, ip, asr #21
 800098e:	d01b      	beq.n	80009c8 <__cmpdf2+0x54>
 8000990:	b001      	add	sp, #4
 8000992:	ea50 0c41 	orrs.w	ip, r0, r1, lsl #1
 8000996:	bf0c      	ite	eq
 8000998:	ea52 0c43 	orrseq.w	ip, r2, r3, lsl #1
 800099c:	ea91 0f03 	teqne	r1, r3
 80009a0:	bf02      	ittt	eq
 80009a2:	ea90 0f02 	teqeq	r0, r2
 80009a6:	2000      	moveq	r0, #0
 80009a8:	4770      	bxeq	lr
 80009aa:	f110 0f00 	cmn.w	r0, #0
 80009ae:	ea91 0f03 	teq	r1, r3
 80009b2:	bf58      	it	pl
 80009b4:	4299      	cmppl	r1, r3
 80009b6:	bf08      	it	eq
 80009b8:	4290      	cmpeq	r0, r2
 80009ba:	bf2c      	ite	cs
 80009bc:	17d8      	asrcs	r0, r3, #31
 80009be:	ea6f 70e3 	mvncc.w	r0, r3, asr #31
 80009c2:	f040 0001 	orr.w	r0, r0, #1
 80009c6:	4770      	bx	lr
 80009c8:	ea4f 0c41 	mov.w	ip, r1, lsl #1
 80009cc:	ea7f 5c6c 	mvns.w	ip, ip, asr #21
 80009d0:	d102      	bne.n	80009d8 <__cmpdf2+0x64>
 80009d2:	ea50 3c01 	orrs.w	ip, r0, r1, lsl #12
 80009d6:	d107      	bne.n	80009e8 <__cmpdf2+0x74>
 80009d8:	ea4f 0c43 	mov.w	ip, r3, lsl #1
 80009dc:	ea7f 5c6c 	mvns.w	ip, ip, asr #21
 80009e0:	d1d6      	bne.n	8000990 <__cmpdf2+0x1c>
 80009e2:	ea52 3c03 	orrs.w	ip, r2, r3, lsl #12
 80009e6:	d0d3      	beq.n	8000990 <__cmpdf2+0x1c>
 80009e8:	f85d 0b04 	ldr.w	r0, [sp], #4
 80009ec:	4770      	bx	lr
 80009ee:	bf00      	nop

080009f0 <__aeabi_cdrcmple>:
 80009f0:	4684      	mov	ip, r0
 80009f2:	4610      	mov	r0, r2
 80009f4:	4662      	mov	r2, ip
 80009f6:	468c      	mov	ip, r1
 80009f8:	4619      	mov	r1, r3
 80009fa:	4663      	mov	r3, ip
 80009fc:	e000      	b.n	8000a00 <__aeabi_cdcmpeq>
 80009fe:	bf00      	nop

08000a00 <__aeabi_cdcmpeq>:
 8000a00:	b501      	push	{r0, lr}
 8000a02:	f7ff ffb7 	bl	8000974 <__cmpdf2>
 8000a06:	2800      	cmp	r0, #0
 8000a08:	bf48      	it	mi
 8000a0a:	f110 0f00 	cmnmi.w	r0, #0
 8000a0e:	bd01      	pop	{r0, pc}

08000a10 <__aeabi_dcmpeq>:
 8000a10:	f84d ed08 	str.w	lr, [sp, #-8]!
 8000a14:	f7ff fff4 	bl	8000a00 <__aeabi_cdcmpeq>
 8000a18:	bf0c      	ite	eq
 8000a1a:	2001      	moveq	r0, #1
 8000a1c:	2000      	movne	r0, #0
 8000a1e:	f85d fb08 	ldr.w	pc, [sp], #8
 8000a22:	bf00      	nop

08000a24 <__aeabi_dcmplt>:
 8000a24:	f84d ed08 	str.w	lr, [sp, #-8]!
 8000a28:	f7ff ffea 	bl	8000a00 <__aeabi_cdcmpeq>
 8000a2c:	bf34      	ite	cc
 8000a2e:	2001      	movcc	r0, #1
 8000a30:	2000      	movcs	r0, #0
 8000a32:	f85d fb08 	ldr.w	pc, [sp], #8
 8000a36:	bf00      	nop

08000a38 <__aeabi_dcmple>:
 8000a38:	f84d ed08 	str.w	lr, [sp, #-8]!
 8000a3c:	f7ff ffe0 	bl	8000a00 <__aeabi_cdcmpeq>
 8000a40:	bf94      	ite	ls
 8000a42:	2001      	movls	r0, #1
 8000a44:	2000      	movhi	r0, #0
 8000a46:	f85d fb08 	ldr.w	pc, [sp], #8
 8000a4a:	bf00      	nop

08000a4c <__aeabi_dcmpge>:
 8000a4c:	f84d ed08 	str.w	lr, [sp, #-8]!
 8000a50:	f7ff ffce 	bl	80009f0 <__aeabi_cdrcmple>
 8000a54:	bf94      	ite	ls
 8000a56:	2001      	movls	r0, #1
 8000a58:	2000      	movhi	r0, #0
 8000a5a:	f85d fb08 	ldr.w	pc, [sp], #8
 8000a5e:	bf00      	nop

08000a60 <__aeabi_dcmpgt>:
 8000a60:	f84d ed08 	str.w	lr, [sp, #-8]!
 8000a64:	f7ff ffc4 	bl	80009f0 <__aeabi_cdrcmple>
 8000a68:	bf34      	ite	cc
 8000a6a:	2001      	movcc	r0, #1
 8000a6c:	2000      	movcs	r0, #0
 8000a6e:	f85d fb08 	ldr.w	pc, [sp], #8
 8000a72:	bf00      	nop

08000a74 <__aeabi_dcmpun>:
 8000a74:	ea4f 0c41 	mov.w	ip, r1, lsl #1
 8000a78:	ea7f 5c6c 	mvns.w	ip, ip, asr #21
 8000a7c:	d102      	bne.n	8000a84 <__aeabi_dcmpun+0x10>
 8000a7e:	ea50 3c01 	orrs.w	ip, r0, r1, lsl #12
 8000a82:	d10a      	bne.n	8000a9a <__aeabi_dcmpun+0x26>
 8000a84:	ea4f 0c43 	mov.w	ip, r3, lsl #1
 8000a88:	ea7f 5c6c 	mvns.w	ip, ip, asr #21
 8000a8c:	d102      	bne.n	8000a94 <__aeabi_dcmpun+0x20>
 8000a8e:	ea52 3c03 	orrs.w	ip, r2, r3, lsl #12
 8000a92:	d102      	bne.n	8000a9a <__aeabi_dcmpun+0x26>
 8000a94:	f04f 0000 	mov.w	r0, #0
 8000a98:	4770      	bx	lr
 8000a9a:	f04f 0001 	mov.w	r0, #1
 8000a9e:	4770      	bx	lr

08000aa0 <__aeabi_d2uiz>:
 8000aa0:	004a      	lsls	r2, r1, #1
 8000aa2:	d211      	bcs.n	8000ac8 <__aeabi_d2uiz+0x28>
 8000aa4:	f512 1200 	adds.w	r2, r2, #2097152	@ 0x200000
 8000aa8:	d211      	bcs.n	8000ace <__aeabi_d2uiz+0x2e>
 8000aaa:	d50d      	bpl.n	8000ac8 <__aeabi_d2uiz+0x28>
 8000aac:	f46f 7378 	mvn.w	r3, #992	@ 0x3e0
 8000ab0:	ebb3 5262 	subs.w	r2, r3, r2, asr #21
 8000ab4:	d40e      	bmi.n	8000ad4 <__aeabi_d2uiz+0x34>
 8000ab6:	ea4f 23c1 	mov.w	r3, r1, lsl #11
 8000aba:	f043 4300 	orr.w	r3, r3, #2147483648	@ 0x80000000
 8000abe:	ea43 5350 	orr.w	r3, r3, r0, lsr #21
 8000ac2:	fa23 f002 	lsr.w	r0, r3, r2
 8000ac6:	4770      	bx	lr
 8000ac8:	f04f 0000 	mov.w	r0, #0
 8000acc:	4770      	bx	lr
 8000ace:	ea50 3001 	orrs.w	r0, r0, r1, lsl #12
 8000ad2:	d102      	bne.n	8000ada <__aeabi_d2uiz+0x3a>
 8000ad4:	f04f 30ff 	mov.w	r0, #4294967295	@ 0xffffffff
 8000ad8:	4770      	bx	lr
 8000ada:	f04f 0000 	mov.w	r0, #0
 8000ade:	4770      	bx	lr

08000ae0 <__aeabi_d2f>:
 8000ae0:	ea4f 0241 	mov.w	r2, r1, lsl #1
 8000ae4:	f1b2 43e0 	subs.w	r3, r2, #1879048192	@ 0x70000000
 8000ae8:	bf24      	itt	cs
 8000aea:	f5b3 1c00 	subscs.w	ip, r3, #2097152	@ 0x200000
 8000aee:	f1dc 5cfe 	rsbscs	ip, ip, #532676608	@ 0x1fc00000
 8000af2:	d90d      	bls.n	8000b10 <__aeabi_d2f+0x30>
 8000af4:	f001 4c00 	and.w	ip, r1, #2147483648	@ 0x80000000
 8000af8:	ea4f 02c0 	mov.w	r2, r0, lsl #3
 8000afc:	ea4c 7050 	orr.w	r0, ip, r0, lsr #29
 8000b00:	f1b2 4f00 	cmp.w	r2, #2147483648	@ 0x80000000
 8000b04:	eb40 0083 	adc.w	r0, r0, r3, lsl #2
 8000b08:	bf08      	it	eq
 8000b0a:	f020 0001 	biceq.w	r0, r0, #1
 8000b0e:	4770      	bx	lr
 8000b10:	f011 4f80 	tst.w	r1, #1073741824	@ 0x40000000
 8000b14:	d121      	bne.n	8000b5a <__aeabi_d2f+0x7a>
 8000b16:	f113 7238 	adds.w	r2, r3, #48234496	@ 0x2e00000
 8000b1a:	bfbc      	itt	lt
 8000b1c:	f001 4000 	andlt.w	r0, r1, #2147483648	@ 0x80000000
 8000b20:	4770      	bxlt	lr
 8000b22:	f441 1180 	orr.w	r1, r1, #1048576	@ 0x100000
 8000b26:	ea4f 5252 	mov.w	r2, r2, lsr #21
 8000b2a:	f1c2 0218 	rsb	r2, r2, #24
 8000b2e:	f1c2 0c20 	rsb	ip, r2, #32
 8000b32:	fa10 f30c 	lsls.w	r3, r0, ip
 8000b36:	fa20 f002 	lsr.w	r0, r0, r2
 8000b3a:	bf18      	it	ne
 8000b3c:	f040 0001 	orrne.w	r0, r0, #1
 8000b40:	ea4f 23c1 	mov.w	r3, r1, lsl #11
 8000b44:	ea4f 23d3 	mov.w	r3, r3, lsr #11
 8000b48:	fa03 fc0c 	lsl.w	ip, r3, ip
 8000b4c:	ea40 000c 	orr.w	r0, r0, ip
 8000b50:	fa23 f302 	lsr.w	r3, r3, r2
 8000b54:	ea4f 0343 	mov.w	r3, r3, lsl #1
 8000b58:	e7cc      	b.n	8000af4 <__aeabi_d2f+0x14>
 8000b5a:	ea7f 5362 	mvns.w	r3, r2, asr #21
 8000b5e:	d107      	bne.n	8000b70 <__aeabi_d2f+0x90>
 8000b60:	ea50 3301 	orrs.w	r3, r0, r1, lsl #12
 8000b64:	bf1e      	ittt	ne
 8000b66:	f04f 40fe 	movne.w	r0, #2130706432	@ 0x7f000000
 8000b6a:	f440 0040 	orrne.w	r0, r0, #12582912	@ 0xc00000
 8000b6e:	4770      	bxne	lr
 8000b70:	f001 4000 	and.w	r0, r1, #2147483648	@ 0x80000000
 8000b74:	f040 40fe 	orr.w	r0, r0, #2130706432	@ 0x7f000000
 8000b78:	f440 0000 	orr.w	r0, r0, #8388608	@ 0x800000
 8000b7c:	4770      	bx	lr
 8000b7e:	bf00      	nop

08000b80 <led_toggle>:
#include <lighting/led_pwm.h>


#include <stdint.h>

void led_toggle(void){
 8000b80:	b580      	push	{r7, lr}
 8000b82:	af00      	add	r7, sp, #0
	gpio_debug_led_toggle();
 8000b84:	f000 fb3c 	bl	8001200 <gpio_debug_led_toggle>
}
 8000b88:	bf00      	nop
 8000b8a:	bd80      	pop	{r7, pc}

08000b8c <getNextIndex>:


event_queue_t event_queue;


static int getNextIndex(uint8_t index){
 8000b8c:	b480      	push	{r7}
 8000b8e:	b083      	sub	sp, #12
 8000b90:	af00      	add	r7, sp, #0
 8000b92:	4603      	mov	r3, r0
 8000b94:	71fb      	strb	r3, [r7, #7]
	return (index + 1) % 8;
 8000b96:	79fb      	ldrb	r3, [r7, #7]
 8000b98:	3301      	adds	r3, #1
 8000b9a:	425a      	negs	r2, r3
 8000b9c:	f003 0307 	and.w	r3, r3, #7
 8000ba0:	f002 0207 	and.w	r2, r2, #7
 8000ba4:	bf58      	it	pl
 8000ba6:	4253      	negpl	r3, r2
}
 8000ba8:	4618      	mov	r0, r3
 8000baa:	370c      	adds	r7, #12
 8000bac:	46bd      	mov	sp, r7
 8000bae:	f85d 7b04 	ldr.w	r7, [sp], #4
 8000bb2:	4770      	bx	lr

08000bb4 <isEmpty>:

static bool isEmpty(event_queue_t const* events){
 8000bb4:	b480      	push	{r7}
 8000bb6:	b083      	sub	sp, #12
 8000bb8:	af00      	add	r7, sp, #0
 8000bba:	6078      	str	r0, [r7, #4]
	if(events->count == 0) return true;
 8000bbc:	687b      	ldr	r3, [r7, #4]
 8000bbe:	789b      	ldrb	r3, [r3, #2]
 8000bc0:	2b00      	cmp	r3, #0
 8000bc2:	d101      	bne.n	8000bc8 <isEmpty+0x14>
 8000bc4:	2301      	movs	r3, #1
 8000bc6:	e000      	b.n	8000bca <isEmpty+0x16>
	return false;
 8000bc8:	2300      	movs	r3, #0
}
 8000bca:	4618      	mov	r0, r3
 8000bcc:	370c      	adds	r7, #12
 8000bce:	46bd      	mov	sp, r7
 8000bd0:	f85d 7b04 	ldr.w	r7, [sp], #4
 8000bd4:	4770      	bx	lr

08000bd6 <isFull>:

static bool isFull(event_queue_t const* events){
 8000bd6:	b480      	push	{r7}
 8000bd8:	b083      	sub	sp, #12
 8000bda:	af00      	add	r7, sp, #0
 8000bdc:	6078      	str	r0, [r7, #4]
	if(events->count == 8) return true;
 8000bde:	687b      	ldr	r3, [r7, #4]
 8000be0:	789b      	ldrb	r3, [r3, #2]
 8000be2:	2b08      	cmp	r3, #8
 8000be4:	d101      	bne.n	8000bea <isFull+0x14>
 8000be6:	2301      	movs	r3, #1
 8000be8:	e000      	b.n	8000bec <isFull+0x16>
	return false;
 8000bea:	2300      	movs	r3, #0
}
 8000bec:	4618      	mov	r0, r3
 8000bee:	370c      	adds	r7, #12
 8000bf0:	46bd      	mov	sp, r7
 8000bf2:	f85d 7b04 	ldr.w	r7, [sp], #4
 8000bf6:	4770      	bx	lr

08000bf8 <event_queue_empty>:


bool event_queue_empty(void){
 8000bf8:	b580      	push	{r7, lr}
 8000bfa:	af00      	add	r7, sp, #0
	return isEmpty(&event_queue);
 8000bfc:	4802      	ldr	r0, [pc, #8]	@ (8000c08 <event_queue_empty+0x10>)
 8000bfe:	f7ff ffd9 	bl	8000bb4 <isEmpty>
 8000c02:	4603      	mov	r3, r0
}
 8000c04:	4618      	mov	r0, r3
 8000c06:	bd80      	pop	{r7, pc}
 8000c08:	20000074 	.word	0x20000074

08000c0c <event_queue_push>:
	event_queue.tail = 0;				// Points to the oldest data spot
	event_queue.count = 0;				// Current number of elements

}

void event_queue_push(light_command_t const *command){
 8000c0c:	b5b0      	push	{r4, r5, r7, lr}
 8000c0e:	b082      	sub	sp, #8
 8000c10:	af00      	add	r7, sp, #0
 8000c12:	6078      	str	r0, [r7, #4]
	if(isFull(&event_queue)){
 8000c14:	4817      	ldr	r0, [pc, #92]	@ (8000c74 <event_queue_push+0x68>)
 8000c16:	f7ff ffde 	bl	8000bd6 <isFull>
 8000c1a:	4603      	mov	r3, r0
 8000c1c:	2b00      	cmp	r3, #0
 8000c1e:	d125      	bne.n	8000c6c <event_queue_push+0x60>
		return ;
	}

	event_queue.count += 1;
 8000c20:	4b14      	ldr	r3, [pc, #80]	@ (8000c74 <event_queue_push+0x68>)
 8000c22:	789b      	ldrb	r3, [r3, #2]
 8000c24:	3301      	adds	r3, #1
 8000c26:	b2da      	uxtb	r2, r3
 8000c28:	4b12      	ldr	r3, [pc, #72]	@ (8000c74 <event_queue_push+0x68>)
 8000c2a:	709a      	strb	r2, [r3, #2]
	event_queue.commandARR[event_queue.head] = *command;
 8000c2c:	4b11      	ldr	r3, [pc, #68]	@ (8000c74 <event_queue_push+0x68>)
 8000c2e:	781b      	ldrb	r3, [r3, #0]
 8000c30:	4619      	mov	r1, r3
 8000c32:	4a10      	ldr	r2, [pc, #64]	@ (8000c74 <event_queue_push+0x68>)
 8000c34:	2316      	movs	r3, #22
 8000c36:	fb01 f303 	mul.w	r3, r1, r3
 8000c3a:	4413      	add	r3, r2
 8000c3c:	687a      	ldr	r2, [r7, #4]
 8000c3e:	3304      	adds	r3, #4
 8000c40:	6811      	ldr	r1, [r2, #0]
 8000c42:	6855      	ldr	r5, [r2, #4]
 8000c44:	6894      	ldr	r4, [r2, #8]
 8000c46:	68d0      	ldr	r0, [r2, #12]
 8000c48:	6019      	str	r1, [r3, #0]
 8000c4a:	605d      	str	r5, [r3, #4]
 8000c4c:	609c      	str	r4, [r3, #8]
 8000c4e:	60d8      	str	r0, [r3, #12]
 8000c50:	6911      	ldr	r1, [r2, #16]
 8000c52:	6119      	str	r1, [r3, #16]
 8000c54:	8a92      	ldrh	r2, [r2, #20]
 8000c56:	829a      	strh	r2, [r3, #20]
	event_queue.head = getNextIndex(event_queue.head);
 8000c58:	4b06      	ldr	r3, [pc, #24]	@ (8000c74 <event_queue_push+0x68>)
 8000c5a:	781b      	ldrb	r3, [r3, #0]
 8000c5c:	4618      	mov	r0, r3
 8000c5e:	f7ff ff95 	bl	8000b8c <getNextIndex>
 8000c62:	4603      	mov	r3, r0
 8000c64:	b2da      	uxtb	r2, r3
 8000c66:	4b03      	ldr	r3, [pc, #12]	@ (8000c74 <event_queue_push+0x68>)
 8000c68:	701a      	strb	r2, [r3, #0]
 8000c6a:	e000      	b.n	8000c6e <event_queue_push+0x62>
		return ;
 8000c6c:	bf00      	nop
}
 8000c6e:	3708      	adds	r7, #8
 8000c70:	46bd      	mov	sp, r7
 8000c72:	bdb0      	pop	{r4, r5, r7, pc}
 8000c74:	20000074 	.word	0x20000074

08000c78 <event_queue_pop>:
void event_queue_pop(light_command_t *cmd){
 8000c78:	b5b0      	push	{r4, r5, r7, lr}
 8000c7a:	b082      	sub	sp, #8
 8000c7c:	af00      	add	r7, sp, #0
 8000c7e:	6078      	str	r0, [r7, #4]
	if(isEmpty(&event_queue)){
 8000c80:	4818      	ldr	r0, [pc, #96]	@ (8000ce4 <event_queue_pop+0x6c>)
 8000c82:	f7ff ff97 	bl	8000bb4 <isEmpty>
 8000c86:	4603      	mov	r3, r0
 8000c88:	2b00      	cmp	r3, #0
 8000c8a:	d126      	bne.n	8000cda <event_queue_pop+0x62>
		return ;
	}
	*cmd = event_queue.commandARR[event_queue.tail];
 8000c8c:	4b15      	ldr	r3, [pc, #84]	@ (8000ce4 <event_queue_pop+0x6c>)
 8000c8e:	785b      	ldrb	r3, [r3, #1]
 8000c90:	4618      	mov	r0, r3
 8000c92:	6879      	ldr	r1, [r7, #4]
 8000c94:	4a13      	ldr	r2, [pc, #76]	@ (8000ce4 <event_queue_pop+0x6c>)
 8000c96:	2316      	movs	r3, #22
 8000c98:	fb00 f303 	mul.w	r3, r0, r3
 8000c9c:	4413      	add	r3, r2
 8000c9e:	460a      	mov	r2, r1
 8000ca0:	3304      	adds	r3, #4
 8000ca2:	6819      	ldr	r1, [r3, #0]
 8000ca4:	685d      	ldr	r5, [r3, #4]
 8000ca6:	689c      	ldr	r4, [r3, #8]
 8000ca8:	68d8      	ldr	r0, [r3, #12]
 8000caa:	6011      	str	r1, [r2, #0]
 8000cac:	6055      	str	r5, [r2, #4]
 8000cae:	6094      	str	r4, [r2, #8]
 8000cb0:	60d0      	str	r0, [r2, #12]
 8000cb2:	6919      	ldr	r1, [r3, #16]
 8000cb4:	6111      	str	r1, [r2, #16]
 8000cb6:	8a9b      	ldrh	r3, [r3, #20]
 8000cb8:	8293      	strh	r3, [r2, #20]
	event_queue.tail = getNextIndex(event_queue.tail);
 8000cba:	4b0a      	ldr	r3, [pc, #40]	@ (8000ce4 <event_queue_pop+0x6c>)
 8000cbc:	785b      	ldrb	r3, [r3, #1]
 8000cbe:	4618      	mov	r0, r3
 8000cc0:	f7ff ff64 	bl	8000b8c <getNextIndex>
 8000cc4:	4603      	mov	r3, r0
 8000cc6:	b2da      	uxtb	r2, r3
 8000cc8:	4b06      	ldr	r3, [pc, #24]	@ (8000ce4 <event_queue_pop+0x6c>)
 8000cca:	705a      	strb	r2, [r3, #1]
	event_queue.count -= 1;
 8000ccc:	4b05      	ldr	r3, [pc, #20]	@ (8000ce4 <event_queue_pop+0x6c>)
 8000cce:	789b      	ldrb	r3, [r3, #2]
 8000cd0:	3b01      	subs	r3, #1
 8000cd2:	b2da      	uxtb	r2, r3
 8000cd4:	4b03      	ldr	r3, [pc, #12]	@ (8000ce4 <event_queue_pop+0x6c>)
 8000cd6:	709a      	strb	r2, [r3, #2]
 8000cd8:	e000      	b.n	8000cdc <event_queue_pop+0x64>
		return ;
 8000cda:	bf00      	nop

}
 8000cdc:	3708      	adds	r7, #8
 8000cde:	46bd      	mov	sp, r7
 8000ce0:	bdb0      	pop	{r4, r5, r7, pc}
 8000ce2:	bf00      	nop
 8000ce4:	20000074 	.word	0x20000074

08000ce8 <main>:
static uint32_t volatile *const rccPLLCFG_reg = (uint32_t volatile*)0x40023804;			// To configure the RCC PLL
static uint32_t volatile *const flashAC_reg = (uint32_t volatile*)0x40023C00;			// To configure flash registers


int main(void)
{
 8000ce8:	b580      	push	{r7, lr}
 8000cea:	b088      	sub	sp, #32
 8000cec:	af02      	add	r7, sp, #8

	*CPAC_reg |=(3 << 20) | (3 << 22);		// Enable full access
 8000cee:	4b47      	ldr	r3, [pc, #284]	@ (8000e0c <main+0x124>)
 8000cf0:	681b      	ldr	r3, [r3, #0]
 8000cf2:	4a46      	ldr	r2, [pc, #280]	@ (8000e0c <main+0x124>)
 8000cf4:	f443 0370 	orr.w	r3, r3, #15728640	@ 0xf00000
 8000cf8:	6013      	str	r3, [r2, #0]

	/* Enable and wait for HSI to start to select it as a valid PLL source*/
	*rccCR_reg |=(1 << 0);	// Enable HSI
 8000cfa:	4b45      	ldr	r3, [pc, #276]	@ (8000e10 <main+0x128>)
 8000cfc:	681b      	ldr	r3, [r3, #0]
 8000cfe:	4a44      	ldr	r2, [pc, #272]	@ (8000e10 <main+0x128>)
 8000d00:	f043 0301 	orr.w	r3, r3, #1
 8000d04:	6013      	str	r3, [r2, #0]
	while(!(*rccCR_reg & (1 << 1)));	// Wait for HSI to be stable(set by HW)
 8000d06:	bf00      	nop
 8000d08:	4b41      	ldr	r3, [pc, #260]	@ (8000e10 <main+0x128>)
 8000d0a:	681b      	ldr	r3, [r3, #0]
 8000d0c:	f003 0302 	and.w	r3, r3, #2
 8000d10:	2b00      	cmp	r3, #0
 8000d12:	d0f9      	beq.n	8000d08 <main+0x20>
	

	/* PLL Config */
	*rccCR_reg &= ~(1 << 24);			// Make sure PLL is disabled before we configure its mul/div factors
 8000d14:	4b3e      	ldr	r3, [pc, #248]	@ (8000e10 <main+0x128>)
 8000d16:	681b      	ldr	r3, [r3, #0]
 8000d18:	4a3d      	ldr	r2, [pc, #244]	@ (8000e10 <main+0x128>)
 8000d1a:	f023 7380 	bic.w	r3, r3, #16777216	@ 0x1000000
 8000d1e:	6013      	str	r3, [r2, #0]

	*rccPLLCFG_reg &= ~((0x3F<<0) | (0x1FF << 6) | (0x3 << 16) | (0x1 << 22)); 	// clear PLLM | PLLN | PLLP | PLLSRC(HSI chosen as source for PLL)
 8000d20:	4b3c      	ldr	r3, [pc, #240]	@ (8000e14 <main+0x12c>)
 8000d22:	681a      	ldr	r2, [r3, #0]
 8000d24:	493b      	ldr	r1, [pc, #236]	@ (8000e14 <main+0x12c>)
 8000d26:	4b3c      	ldr	r3, [pc, #240]	@ (8000e18 <main+0x130>)
 8000d28:	4013      	ands	r3, r2
 8000d2a:	600b      	str	r3, [r1, #0]
	*rccPLLCFG_reg |= ((1 << 4) | (336 << 6) | (1 << 16));						// set PLLM to 16 to divide HSI by 16, PLLN to 336 and PLLP to 4
 8000d2c:	4b39      	ldr	r3, [pc, #228]	@ (8000e14 <main+0x12c>)
 8000d2e:	681b      	ldr	r3, [r3, #0]
 8000d30:	4a38      	ldr	r2, [pc, #224]	@ (8000e14 <main+0x12c>)
 8000d32:	f443 33aa 	orr.w	r3, r3, #87040	@ 0x15400
 8000d36:	f043 0310 	orr.w	r3, r3, #16
 8000d3a:	6013      	str	r3, [r2, #0]

	*rccCFG_reg |= ((0 << 4) | (4 << 10) | (0 << 13));	// set prescalers for AHB=1, APB1 = 2, APB2 = 1
 8000d3c:	4b37      	ldr	r3, [pc, #220]	@ (8000e1c <main+0x134>)
 8000d3e:	681b      	ldr	r3, [r3, #0]
 8000d40:	4a36      	ldr	r2, [pc, #216]	@ (8000e1c <main+0x134>)
 8000d42:	f443 5380 	orr.w	r3, r3, #4096	@ 0x1000
 8000d46:	6013      	str	r3, [r2, #0]

	// Enable PLL before selecting it as a SYSCLK source
	*rccCR_reg |= (1 << 24);
 8000d48:	4b31      	ldr	r3, [pc, #196]	@ (8000e10 <main+0x128>)
 8000d4a:	681b      	ldr	r3, [r3, #0]
 8000d4c:	4a30      	ldr	r2, [pc, #192]	@ (8000e10 <main+0x128>)
 8000d4e:	f043 7380 	orr.w	r3, r3, #16777216	@ 0x1000000
 8000d52:	6013      	str	r3, [r2, #0]

	// Wait till PLL is locked
	while(!(*rccCR_reg & (1 << 25)));
 8000d54:	bf00      	nop
 8000d56:	4b2e      	ldr	r3, [pc, #184]	@ (8000e10 <main+0x128>)
 8000d58:	681b      	ldr	r3, [r3, #0]
 8000d5a:	f003 7300 	and.w	r3, r3, #33554432	@ 0x2000000
 8000d5e:	2b00      	cmp	r3, #0
 8000d60:	d0f9      	beq.n	8000d56 <main+0x6e>

	// Set the Flash Wait-states to 2(3 CPU cycles)
	*flashAC_reg |= (2 << 0);
 8000d62:	4b2f      	ldr	r3, [pc, #188]	@ (8000e20 <main+0x138>)
 8000d64:	681b      	ldr	r3, [r3, #0]
 8000d66:	4a2e      	ldr	r2, [pc, #184]	@ (8000e20 <main+0x138>)
 8000d68:	f043 0302 	orr.w	r3, r3, #2
 8000d6c:	6013      	str	r3, [r2, #0]

	*rccCFG_reg |= (2 << 0);	// Set PLL as SYSCLK
 8000d6e:	4b2b      	ldr	r3, [pc, #172]	@ (8000e1c <main+0x134>)
 8000d70:	681b      	ldr	r3, [r3, #0]
 8000d72:	4a2a      	ldr	r2, [pc, #168]	@ (8000e1c <main+0x134>)
 8000d74:	f043 0302 	orr.w	r3, r3, #2
 8000d78:	6013      	str	r3, [r2, #0]

	// Wait for SYSCLK switch status to confirm PLL as the source
	while(((*rccCFG_reg >> 2) & 0x3) != 2);	// 2 confirms PLL as the source
 8000d7a:	bf00      	nop
 8000d7c:	4b27      	ldr	r3, [pc, #156]	@ (8000e1c <main+0x134>)
 8000d7e:	681b      	ldr	r3, [r3, #0]
 8000d80:	089b      	lsrs	r3, r3, #2
 8000d82:	f003 0303 	and.w	r3, r3, #3
 8000d86:	2b02      	cmp	r3, #2
 8000d88:	d1f8      	bne.n	8000d7c <main+0x94>

	// drivers init
	gpio_init();
 8000d8a:	f000 fa21 	bl	80011d0 <gpio_init>
	uart1_init();
 8000d8e:	f000 fdd1 	bl	8001934 <uart1_init>
	pwm_init();			// initialise the LED PWM
 8000d92:	f000 fc19 	bl	80015c8 <pwm_init>

	// architecture init
	protocol_init();
 8000d96:	f000 f84d 	bl	8000e34 <protocol_init>
	lighting_engine_init();
 8000d9a:	f000 febf 	bl	8001b1c <lighting_engine_init>

	while(1){
		if(command_recv){
 8000d9e:	4b21      	ldr	r3, [pc, #132]	@ (8000e24 <main+0x13c>)
 8000da0:	781b      	ldrb	r3, [r3, #0]
 8000da2:	b2db      	uxtb	r3, r3
 8000da4:	2b00      	cmp	r3, #0
 8000da6:	d01c      	beq.n	8000de2 <main+0xfa>
			command_recv = false;
 8000da8:	4b1e      	ldr	r3, [pc, #120]	@ (8000e24 <main+0x13c>)
 8000daa:	2200      	movs	r2, #0
 8000dac:	701a      	strb	r2, [r3, #0]
			uint8_t frame_length = get_frame_length();
 8000dae:	f000 fe3b 	bl	8001a28 <get_frame_length>
 8000db2:	4603      	mov	r3, r0
 8000db4:	75fb      	strb	r3, [r7, #23]
			protocol_process_frame(recvCommand, frame_length);
 8000db6:	7dfb      	ldrb	r3, [r7, #23]
 8000db8:	4619      	mov	r1, r3
 8000dba:	481b      	ldr	r0, [pc, #108]	@ (8000e28 <main+0x140>)
 8000dbc:	f000 f858 	bl	8000e70 <protocol_process_frame>

		}
		while(!event_queue_empty()){
 8000dc0:	e00f      	b.n	8000de2 <main+0xfa>
			light_command_t cmd;
			event_queue_pop(&cmd);
 8000dc2:	463b      	mov	r3, r7
 8000dc4:	4618      	mov	r0, r3
 8000dc6:	f7ff ff57 	bl	8000c78 <event_queue_pop>
			event_dispatcher(cmd);
 8000dca:	466b      	mov	r3, sp
 8000dcc:	f107 0210 	add.w	r2, r7, #16
 8000dd0:	e892 0003 	ldmia.w	r2, {r0, r1}
 8000dd4:	6018      	str	r0, [r3, #0]
 8000dd6:	3304      	adds	r3, #4
 8000dd8:	8019      	strh	r1, [r3, #0]
 8000dda:	463b      	mov	r3, r7
 8000ddc:	cb0f      	ldmia	r3, {r0, r1, r2, r3}
 8000dde:	f000 fea3 	bl	8001b28 <event_dispatcher>
		while(!event_queue_empty()){
 8000de2:	f7ff ff09 	bl	8000bf8 <event_queue_empty>
 8000de6:	4603      	mov	r3, r0
 8000de8:	f083 0301 	eor.w	r3, r3, #1
 8000dec:	b2db      	uxtb	r3, r3
 8000dee:	2b00      	cmp	r3, #0
 8000df0:	d1e7      	bne.n	8000dc2 <main+0xda>
			//gpio_debug_led_toggle();	// debug
		}

		if(call_update_function){
 8000df2:	4b0e      	ldr	r3, [pc, #56]	@ (8000e2c <main+0x144>)
 8000df4:	781b      	ldrb	r3, [r3, #0]
 8000df6:	b2db      	uxtb	r3, r3
 8000df8:	2b00      	cmp	r3, #0
 8000dfa:	d0d0      	beq.n	8000d9e <main+0xb6>
			call_update_function = false;
 8000dfc:	4b0b      	ldr	r3, [pc, #44]	@ (8000e2c <main+0x144>)
 8000dfe:	2200      	movs	r2, #0
 8000e00:	701a      	strb	r2, [r3, #0]
			update_callback();
 8000e02:	4b0b      	ldr	r3, [pc, #44]	@ (8000e30 <main+0x148>)
 8000e04:	681b      	ldr	r3, [r3, #0]
 8000e06:	4798      	blx	r3
		if(command_recv){
 8000e08:	e7c9      	b.n	8000d9e <main+0xb6>
 8000e0a:	bf00      	nop
 8000e0c:	e000ed88 	.word	0xe000ed88
 8000e10:	40023800 	.word	0x40023800
 8000e14:	40023804 	.word	0x40023804
 8000e18:	ffbc8000 	.word	0xffbc8000
 8000e1c:	40023808 	.word	0x40023808
 8000e20:	40023c00 	.word	0x40023c00
 8000e24:	20000128 	.word	0x20000128
 8000e28:	2000012c 	.word	0x2000012c
 8000e2c:	20000162 	.word	0x20000162
 8000e30:	200001dc 	.word	0x200001dc

08000e34 <protocol_init>:
// function definitions
static bool protocol_parse_frame(volatile uint8_t *frame, uint8_t length); 							// validate SOF, length, CRC.
static void protocol_extract_params(volatile uint8_t *frame, light_command_t *cmd, uint8_t length); 	// extract HSV, mode, timing, etc.
static uint8_t protocol_compute_crc(volatile uint8_t *frame, uint8_t length); 			// checksum verification.

void protocol_init(void){
 8000e34:	b480      	push	{r7}
 8000e36:	b083      	sub	sp, #12
 8000e38:	af00      	add	r7, sp, #0
	for(int i = 0; i < sizeof(recvCommand)/sizeof(uint8_t); i++){
 8000e3a:	2300      	movs	r3, #0
 8000e3c:	607b      	str	r3, [r7, #4]
 8000e3e:	e007      	b.n	8000e50 <protocol_init+0x1c>
		recvCommand[i] = 0;
 8000e40:	4a09      	ldr	r2, [pc, #36]	@ (8000e68 <protocol_init+0x34>)
 8000e42:	687b      	ldr	r3, [r7, #4]
 8000e44:	4413      	add	r3, r2
 8000e46:	2200      	movs	r2, #0
 8000e48:	701a      	strb	r2, [r3, #0]
	for(int i = 0; i < sizeof(recvCommand)/sizeof(uint8_t); i++){
 8000e4a:	687b      	ldr	r3, [r7, #4]
 8000e4c:	3301      	adds	r3, #1
 8000e4e:	607b      	str	r3, [r7, #4]
 8000e50:	687b      	ldr	r3, [r7, #4]
 8000e52:	2b1f      	cmp	r3, #31
 8000e54:	d9f4      	bls.n	8000e40 <protocol_init+0xc>
	}
	command_recv = false;
 8000e56:	4b05      	ldr	r3, [pc, #20]	@ (8000e6c <protocol_init+0x38>)
 8000e58:	2200      	movs	r2, #0
 8000e5a:	701a      	strb	r2, [r3, #0]
}
 8000e5c:	bf00      	nop
 8000e5e:	370c      	adds	r7, #12
 8000e60:	46bd      	mov	sp, r7
 8000e62:	f85d 7b04 	ldr.w	r7, [sp], #4
 8000e66:	4770      	bx	lr
 8000e68:	2000012c 	.word	0x2000012c
 8000e6c:	20000128 	.word	0x20000128

08000e70 <protocol_process_frame>:


void protocol_process_frame(volatile uint8_t *frame, uint8_t length){
 8000e70:	b580      	push	{r7, lr}
 8000e72:	b086      	sub	sp, #24
 8000e74:	af00      	add	r7, sp, #0
 8000e76:	6078      	str	r0, [r7, #4]
 8000e78:	460b      	mov	r3, r1
 8000e7a:	70fb      	strb	r3, [r7, #3]
	if(!protocol_parse_frame(frame, length)){
 8000e7c:	78fb      	ldrb	r3, [r7, #3]
 8000e7e:	4619      	mov	r1, r3
 8000e80:	6878      	ldr	r0, [r7, #4]
 8000e82:	f000 f83d 	bl	8000f00 <protocol_parse_frame>
 8000e86:	4603      	mov	r3, r0
 8000e88:	f083 0301 	eor.w	r3, r3, #1
 8000e8c:	b2db      	uxtb	r3, r3
 8000e8e:	2b00      	cmp	r3, #0
 8000e90:	d002      	beq.n	8000e98 <protocol_process_frame+0x28>
		led_toggle();
 8000e92:	f7ff fe75 	bl	8000b80 <led_toggle>
		return ;
 8000e96:	e02e      	b.n	8000ef6 <protocol_process_frame+0x86>
	}
	if(frame[2] == HEARTBEAT){
 8000e98:	687b      	ldr	r3, [r7, #4]
 8000e9a:	3302      	adds	r3, #2
 8000e9c:	781b      	ldrb	r3, [r3, #0]
 8000e9e:	b2db      	uxtb	r3, r3
 8000ea0:	2b00      	cmp	r3, #0
 8000ea2:	d11f      	bne.n	8000ee4 <protocol_process_frame+0x74>
		uint8_t current_status[3], heartbeatAckArr[7];
		get_current_status(current_status);
 8000ea4:	f107 0314 	add.w	r3, r7, #20
 8000ea8:	4618      	mov	r0, r3
 8000eaa:	f000 fef5 	bl	8001c98 <get_current_status>


		heartbeatAckArr[0] = 0xAA;
 8000eae:	23aa      	movs	r3, #170	@ 0xaa
 8000eb0:	733b      	strb	r3, [r7, #12]
		heartbeatAckArr[1] = 0x82;	//HEARTBEAT_RESP
 8000eb2:	2382      	movs	r3, #130	@ 0x82
 8000eb4:	737b      	strb	r3, [r7, #13]
		heartbeatAckArr[2] = current_status[0];
 8000eb6:	7d3b      	ldrb	r3, [r7, #20]
 8000eb8:	73bb      	strb	r3, [r7, #14]
		heartbeatAckArr[3] = current_status[1];
 8000eba:	7d7b      	ldrb	r3, [r7, #21]
 8000ebc:	73fb      	strb	r3, [r7, #15]
		heartbeatAckArr[4] = current_status[2];
 8000ebe:	7dbb      	ldrb	r3, [r7, #22]
 8000ec0:	743b      	strb	r3, [r7, #16]
		heartbeatAckArr[5] = 0x00;
 8000ec2:	2300      	movs	r3, #0
 8000ec4:	747b      	strb	r3, [r7, #17]
		heartbeatAckArr[6] = protocol_compute_crc(heartbeatAckArr, 7);
 8000ec6:	f107 030c 	add.w	r3, r7, #12
 8000eca:	2107      	movs	r1, #7
 8000ecc:	4618      	mov	r0, r3
 8000ece:	f000 f846 	bl	8000f5e <protocol_compute_crc>
 8000ed2:	4603      	mov	r3, r0
 8000ed4:	74bb      	strb	r3, [r7, #18]

		uart1sendBuffer(heartbeatAckArr, sizeof(heartbeatAckArr)/sizeof(uint8_t));
 8000ed6:	f107 030c 	add.w	r3, r7, #12
 8000eda:	2107      	movs	r1, #7
 8000edc:	4618      	mov	r0, r3
 8000ede:	f000 fd87 	bl	80019f0 <uart1sendBuffer>
 8000ee2:	e008      	b.n	8000ef6 <protocol_process_frame+0x86>

	}else{
		protocol_extract_params(frame, &command,length);
 8000ee4:	78fb      	ldrb	r3, [r7, #3]
 8000ee6:	461a      	mov	r2, r3
 8000ee8:	4904      	ldr	r1, [pc, #16]	@ (8000efc <protocol_process_frame+0x8c>)
 8000eea:	6878      	ldr	r0, [r7, #4]
 8000eec:	f000 f85a 	bl	8000fa4 <protocol_extract_params>
		// push the event to event queue
		event_queue_push(&command);
 8000ef0:	4802      	ldr	r0, [pc, #8]	@ (8000efc <protocol_process_frame+0x8c>)
 8000ef2:	f7ff fe8b 	bl	8000c0c <event_queue_push>
	}

}
 8000ef6:	3718      	adds	r7, #24
 8000ef8:	46bd      	mov	sp, r7
 8000efa:	bd80      	pop	{r7, pc}
 8000efc:	2000014c 	.word	0x2000014c

08000f00 <protocol_parse_frame>:


static bool protocol_parse_frame(volatile uint8_t *frame, uint8_t length){
 8000f00:	b580      	push	{r7, lr}
 8000f02:	b084      	sub	sp, #16
 8000f04:	af00      	add	r7, sp, #0
 8000f06:	6078      	str	r0, [r7, #4]
 8000f08:	460b      	mov	r3, r1
 8000f0a:	70fb      	strb	r3, [r7, #3]
	// validate SOF
	if(*frame != 0xAA){
 8000f0c:	687b      	ldr	r3, [r7, #4]
 8000f0e:	781b      	ldrb	r3, [r3, #0]
 8000f10:	b2db      	uxtb	r3, r3
 8000f12:	2baa      	cmp	r3, #170	@ 0xaa
 8000f14:	d001      	beq.n	8000f1a <protocol_parse_frame+0x1a>
		//error_invalid_header();
		return false;
 8000f16:	2300      	movs	r3, #0
 8000f18:	e01d      	b.n	8000f56 <protocol_parse_frame+0x56>
	}

	// validate length
	if(length != frame[1]){
 8000f1a:	687b      	ldr	r3, [r7, #4]
 8000f1c:	3301      	adds	r3, #1
 8000f1e:	781b      	ldrb	r3, [r3, #0]
 8000f20:	b2db      	uxtb	r3, r3
 8000f22:	78fa      	ldrb	r2, [r7, #3]
 8000f24:	429a      	cmp	r2, r3
 8000f26:	d001      	beq.n	8000f2c <protocol_parse_frame+0x2c>
		//error_invalid_length();
		return false;
 8000f28:	2300      	movs	r3, #0
 8000f2a:	e014      	b.n	8000f56 <protocol_parse_frame+0x56>
	}

	// Compute CRC
	uint8_t compCRC = protocol_compute_crc(frame, length);
 8000f2c:	78fb      	ldrb	r3, [r7, #3]
 8000f2e:	4619      	mov	r1, r3
 8000f30:	6878      	ldr	r0, [r7, #4]
 8000f32:	f000 f814 	bl	8000f5e <protocol_compute_crc>
 8000f36:	4603      	mov	r3, r0
 8000f38:	73fb      	strb	r3, [r7, #15]
	// validate CRC
	if(compCRC != frame[length-1]){
 8000f3a:	78fb      	ldrb	r3, [r7, #3]
 8000f3c:	3b01      	subs	r3, #1
 8000f3e:	687a      	ldr	r2, [r7, #4]
 8000f40:	4413      	add	r3, r2
 8000f42:	781b      	ldrb	r3, [r3, #0]
 8000f44:	b2db      	uxtb	r3, r3
 8000f46:	7bfa      	ldrb	r2, [r7, #15]
 8000f48:	429a      	cmp	r2, r3
 8000f4a:	d003      	beq.n	8000f54 <protocol_parse_frame+0x54>
		led_toggle();
 8000f4c:	f7ff fe18 	bl	8000b80 <led_toggle>
		return false;
 8000f50:	2300      	movs	r3, #0
 8000f52:	e000      	b.n	8000f56 <protocol_parse_frame+0x56>
	}

	return true;
 8000f54:	2301      	movs	r3, #1
}
 8000f56:	4618      	mov	r0, r3
 8000f58:	3710      	adds	r7, #16
 8000f5a:	46bd      	mov	sp, r7
 8000f5c:	bd80      	pop	{r7, pc}

08000f5e <protocol_compute_crc>:


static uint8_t protocol_compute_crc(volatile uint8_t *frame, uint8_t length){
 8000f5e:	b480      	push	{r7}
 8000f60:	b085      	sub	sp, #20
 8000f62:	af00      	add	r7, sp, #0
 8000f64:	6078      	str	r0, [r7, #4]
 8000f66:	460b      	mov	r3, r1
 8000f68:	70fb      	strb	r3, [r7, #3]
	uint8_t crc = 0;
 8000f6a:	2300      	movs	r3, #0
 8000f6c:	73fb      	strb	r3, [r7, #15]
	for(int i = 0 ; i < (length-1) ; i++){
 8000f6e:	2300      	movs	r3, #0
 8000f70:	60bb      	str	r3, [r7, #8]
 8000f72:	e00a      	b.n	8000f8a <protocol_compute_crc+0x2c>
		crc ^= frame[i];
 8000f74:	68bb      	ldr	r3, [r7, #8]
 8000f76:	687a      	ldr	r2, [r7, #4]
 8000f78:	4413      	add	r3, r2
 8000f7a:	781b      	ldrb	r3, [r3, #0]
 8000f7c:	b2da      	uxtb	r2, r3
 8000f7e:	7bfb      	ldrb	r3, [r7, #15]
 8000f80:	4053      	eors	r3, r2
 8000f82:	73fb      	strb	r3, [r7, #15]
	for(int i = 0 ; i < (length-1) ; i++){
 8000f84:	68bb      	ldr	r3, [r7, #8]
 8000f86:	3301      	adds	r3, #1
 8000f88:	60bb      	str	r3, [r7, #8]
 8000f8a:	78fb      	ldrb	r3, [r7, #3]
 8000f8c:	3b01      	subs	r3, #1
 8000f8e:	68ba      	ldr	r2, [r7, #8]
 8000f90:	429a      	cmp	r2, r3
 8000f92:	dbef      	blt.n	8000f74 <protocol_compute_crc+0x16>
	}

	return crc;
 8000f94:	7bfb      	ldrb	r3, [r7, #15]
}
 8000f96:	4618      	mov	r0, r3
 8000f98:	3714      	adds	r7, #20
 8000f9a:	46bd      	mov	sp, r7
 8000f9c:	f85d 7b04 	ldr.w	r7, [sp], #4
 8000fa0:	4770      	bx	lr
	...

08000fa4 <protocol_extract_params>:

static void protocol_extract_params(volatile uint8_t *frame, light_command_t *cmd, uint8_t length){
 8000fa4:	b480      	push	{r7}
 8000fa6:	b087      	sub	sp, #28
 8000fa8:	af00      	add	r7, sp, #0
 8000faa:	60f8      	str	r0, [r7, #12]
 8000fac:	60b9      	str	r1, [r7, #8]
 8000fae:	4613      	mov	r3, r2
 8000fb0:	71fb      	strb	r3, [r7, #7]
	cmd->event = frame[2];
 8000fb2:	68fb      	ldr	r3, [r7, #12]
 8000fb4:	3302      	adds	r3, #2
 8000fb6:	781b      	ldrb	r3, [r3, #0]
 8000fb8:	b2db      	uxtb	r3, r3
 8000fba:	b25a      	sxtb	r2, r3
 8000fbc:	68bb      	ldr	r3, [r7, #8]
 8000fbe:	74da      	strb	r2, [r3, #19]
	switch(cmd->event){
 8000fc0:	68bb      	ldr	r3, [r7, #8]
 8000fc2:	f993 3013 	ldrsb.w	r3, [r3, #19]
 8000fc6:	2b03      	cmp	r3, #3
 8000fc8:	f000 80e3 	beq.w	8001192 <protocol_extract_params+0x1ee>
 8000fcc:	2b03      	cmp	r3, #3
 8000fce:	f300 80f8 	bgt.w	80011c2 <protocol_extract_params+0x21e>
 8000fd2:	2b01      	cmp	r3, #1
 8000fd4:	d031      	beq.n	800103a <protocol_extract_params+0x96>
 8000fd6:	2b02      	cmp	r3, #2
 8000fd8:	f040 80f3 	bne.w	80011c2 <protocol_extract_params+0x21e>
	case SET_COLOR:
	{
		cmd->hue = (frame[3] << 8) | frame[4];
 8000fdc:	68fb      	ldr	r3, [r7, #12]
 8000fde:	3303      	adds	r3, #3
 8000fe0:	781b      	ldrb	r3, [r3, #0]
 8000fe2:	b2db      	uxtb	r3, r3
 8000fe4:	b21b      	sxth	r3, r3
 8000fe6:	021b      	lsls	r3, r3, #8
 8000fe8:	b21a      	sxth	r2, r3
 8000fea:	68fb      	ldr	r3, [r7, #12]
 8000fec:	3304      	adds	r3, #4
 8000fee:	781b      	ldrb	r3, [r3, #0]
 8000ff0:	b2db      	uxtb	r3, r3
 8000ff2:	b21b      	sxth	r3, r3
 8000ff4:	4313      	orrs	r3, r2
 8000ff6:	b21b      	sxth	r3, r3
 8000ff8:	b29a      	uxth	r2, r3
 8000ffa:	68bb      	ldr	r3, [r7, #8]
 8000ffc:	801a      	strh	r2, [r3, #0]
		cmd->saturation = frame[5];
 8000ffe:	68fb      	ldr	r3, [r7, #12]
 8001000:	3305      	adds	r3, #5
 8001002:	781b      	ldrb	r3, [r3, #0]
 8001004:	b2da      	uxtb	r2, r3
 8001006:	68bb      	ldr	r3, [r7, #8]
 8001008:	711a      	strb	r2, [r3, #4]
		cmd->value = frame[6];
 800100a:	68fb      	ldr	r3, [r7, #12]
 800100c:	3306      	adds	r3, #6
 800100e:	781b      	ldrb	r3, [r3, #0]
 8001010:	b2da      	uxtb	r2, r3
 8001012:	68bb      	ldr	r3, [r7, #8]
 8001014:	715a      	strb	r2, [r3, #5]
		cmd->fade_time = (frame[7] << 8) | frame[8];
 8001016:	68fb      	ldr	r3, [r7, #12]
 8001018:	3307      	adds	r3, #7
 800101a:	781b      	ldrb	r3, [r3, #0]
 800101c:	b2db      	uxtb	r3, r3
 800101e:	b21b      	sxth	r3, r3
 8001020:	021b      	lsls	r3, r3, #8
 8001022:	b21a      	sxth	r2, r3
 8001024:	68fb      	ldr	r3, [r7, #12]
 8001026:	3308      	adds	r3, #8
 8001028:	781b      	ldrb	r3, [r3, #0]
 800102a:	b2db      	uxtb	r3, r3
 800102c:	b21b      	sxth	r3, r3
 800102e:	4313      	orrs	r3, r2
 8001030:	b21b      	sxth	r3, r3
 8001032:	b29a      	uxth	r2, r3
 8001034:	68bb      	ldr	r3, [r7, #8]
 8001036:	805a      	strh	r2, [r3, #2]
		break;
 8001038:	e0c4      	b.n	80011c4 <protocol_extract_params+0x220>
	}
	case SET_MODE:
	{
		cmd->mode = frame[3];
 800103a:	68fb      	ldr	r3, [r7, #12]
 800103c:	3303      	adds	r3, #3
 800103e:	781b      	ldrb	r3, [r3, #0]
 8001040:	b2da      	uxtb	r2, r3
 8001042:	68bb      	ldr	r3, [r7, #8]
 8001044:	751a      	strb	r2, [r3, #20]
		switch(cmd->mode){
 8001046:	68bb      	ldr	r3, [r7, #8]
 8001048:	7d1b      	ldrb	r3, [r3, #20]
 800104a:	3b01      	subs	r3, #1
 800104c:	2b03      	cmp	r3, #3
 800104e:	f200 809e 	bhi.w	800118e <protocol_extract_params+0x1ea>
 8001052:	a201      	add	r2, pc, #4	@ (adr r2, 8001058 <protocol_extract_params+0xb4>)
 8001054:	f852 f023 	ldr.w	pc, [r2, r3, lsl #2]
 8001058:	08001069 	.word	0x08001069
 800105c:	0800118f 	.word	0x0800118f
 8001060:	080010c7 	.word	0x080010c7
 8001064:	0800118f 	.word	0x0800118f
		case STATIC_RGB:
			cmd->hue = (frame[4] << 8) | frame[5];		// 0 << 8 | 16	;	22 ( terracotta/amber hue)
 8001068:	68fb      	ldr	r3, [r7, #12]
 800106a:	3304      	adds	r3, #4
 800106c:	781b      	ldrb	r3, [r3, #0]
 800106e:	b2db      	uxtb	r3, r3
 8001070:	b21b      	sxth	r3, r3
 8001072:	021b      	lsls	r3, r3, #8
 8001074:	b21a      	sxth	r2, r3
 8001076:	68fb      	ldr	r3, [r7, #12]
 8001078:	3305      	adds	r3, #5
 800107a:	781b      	ldrb	r3, [r3, #0]
 800107c:	b2db      	uxtb	r3, r3
 800107e:	b21b      	sxth	r3, r3
 8001080:	4313      	orrs	r3, r2
 8001082:	b21b      	sxth	r3, r3
 8001084:	b29a      	uxth	r2, r3
 8001086:	68bb      	ldr	r3, [r7, #8]
 8001088:	801a      	strh	r2, [r3, #0]
			cmd->saturation = frame[6];
 800108a:	68fb      	ldr	r3, [r7, #12]
 800108c:	3306      	adds	r3, #6
 800108e:	781b      	ldrb	r3, [r3, #0]
 8001090:	b2da      	uxtb	r2, r3
 8001092:	68bb      	ldr	r3, [r7, #8]
 8001094:	711a      	strb	r2, [r3, #4]
			cmd->value=frame[7];
 8001096:	68fb      	ldr	r3, [r7, #12]
 8001098:	3307      	adds	r3, #7
 800109a:	781b      	ldrb	r3, [r3, #0]
 800109c:	b2da      	uxtb	r2, r3
 800109e:	68bb      	ldr	r3, [r7, #8]
 80010a0:	715a      	strb	r2, [r3, #5]
			cmd->fade_time = (frame[8] << 8) | frame[9];
 80010a2:	68fb      	ldr	r3, [r7, #12]
 80010a4:	3308      	adds	r3, #8
 80010a6:	781b      	ldrb	r3, [r3, #0]
 80010a8:	b2db      	uxtb	r3, r3
 80010aa:	b21b      	sxth	r3, r3
 80010ac:	021b      	lsls	r3, r3, #8
 80010ae:	b21a      	sxth	r2, r3
 80010b0:	68fb      	ldr	r3, [r7, #12]
 80010b2:	3309      	adds	r3, #9
 80010b4:	781b      	ldrb	r3, [r3, #0]
 80010b6:	b2db      	uxtb	r3, r3
 80010b8:	b21b      	sxth	r3, r3
 80010ba:	4313      	orrs	r3, r2
 80010bc:	b21b      	sxth	r3, r3
 80010be:	b29a      	uxth	r2, r3
 80010c0:	68bb      	ldr	r3, [r7, #8]
 80010c2:	805a      	strh	r2, [r3, #2]
			break;
 80010c4:	e064      	b.n	8001190 <protocol_extract_params+0x1ec>
		case DYNAMIC_RAINBOW:
			break;
		case DYNAMIC_SCENE:
		{
			// 170 24 1 3 4 0 32 6 0 0 214 55 255 0 209 31 255 0 208 15 255 19 136 6
			cmd->modeParameters.color_count = frame[4];
 80010c6:	68fb      	ldr	r3, [r7, #12]
 80010c8:	3304      	adds	r3, #4
 80010ca:	781b      	ldrb	r3, [r3, #0]
 80010cc:	b2da      	uxtb	r2, r3
 80010ce:	68bb      	ldr	r3, [r7, #8]
 80010d0:	719a      	strb	r2, [r3, #6]
			for(uint8_t i =0; i < cmd->modeParameters.color_count ; i++){
 80010d2:	2300      	movs	r3, #0
 80010d4:	75fb      	strb	r3, [r7, #23]
 80010d6:	e03b      	b.n	8001150 <protocol_extract_params+0x1ac>
				cmd->modeParameters.color_arr[0 + i*3] =(frame[5 + i*4] << 8) | frame[6 + i*4];
 80010d8:	7dfb      	ldrb	r3, [r7, #23]
 80010da:	009b      	lsls	r3, r3, #2
 80010dc:	3305      	adds	r3, #5
 80010de:	461a      	mov	r2, r3
 80010e0:	68fb      	ldr	r3, [r7, #12]
 80010e2:	4413      	add	r3, r2
 80010e4:	781b      	ldrb	r3, [r3, #0]
 80010e6:	7dfb      	ldrb	r3, [r7, #23]
 80010e8:	009b      	lsls	r3, r3, #2
 80010ea:	3306      	adds	r3, #6
 80010ec:	461a      	mov	r2, r3
 80010ee:	68fb      	ldr	r3, [r7, #12]
 80010f0:	1899      	adds	r1, r3, r2
 80010f2:	7dfa      	ldrb	r2, [r7, #23]
 80010f4:	4613      	mov	r3, r2
 80010f6:	005b      	lsls	r3, r3, #1
 80010f8:	4413      	add	r3, r2
 80010fa:	780a      	ldrb	r2, [r1, #0]
 80010fc:	b2d1      	uxtb	r1, r2
 80010fe:	68ba      	ldr	r2, [r7, #8]
 8001100:	4413      	add	r3, r2
 8001102:	460a      	mov	r2, r1
 8001104:	71da      	strb	r2, [r3, #7]
				cmd->modeParameters.color_arr[1 + i*3] = frame[7 + i*4];
 8001106:	7dfb      	ldrb	r3, [r7, #23]
 8001108:	009b      	lsls	r3, r3, #2
 800110a:	3307      	adds	r3, #7
 800110c:	461a      	mov	r2, r3
 800110e:	68fb      	ldr	r3, [r7, #12]
 8001110:	1899      	adds	r1, r3, r2
 8001112:	7dfa      	ldrb	r2, [r7, #23]
 8001114:	4613      	mov	r3, r2
 8001116:	005b      	lsls	r3, r3, #1
 8001118:	4413      	add	r3, r2
 800111a:	3301      	adds	r3, #1
 800111c:	780a      	ldrb	r2, [r1, #0]
 800111e:	b2d1      	uxtb	r1, r2
 8001120:	68ba      	ldr	r2, [r7, #8]
 8001122:	4413      	add	r3, r2
 8001124:	460a      	mov	r2, r1
 8001126:	71da      	strb	r2, [r3, #7]
				cmd->modeParameters.color_arr[2 + i*3] = frame[8 + i*4];
 8001128:	7dfb      	ldrb	r3, [r7, #23]
 800112a:	3302      	adds	r3, #2
 800112c:	009b      	lsls	r3, r3, #2
 800112e:	461a      	mov	r2, r3
 8001130:	68fb      	ldr	r3, [r7, #12]
 8001132:	1899      	adds	r1, r3, r2
 8001134:	7dfa      	ldrb	r2, [r7, #23]
 8001136:	4613      	mov	r3, r2
 8001138:	005b      	lsls	r3, r3, #1
 800113a:	4413      	add	r3, r2
 800113c:	3302      	adds	r3, #2
 800113e:	780a      	ldrb	r2, [r1, #0]
 8001140:	b2d1      	uxtb	r1, r2
 8001142:	68ba      	ldr	r2, [r7, #8]
 8001144:	4413      	add	r3, r2
 8001146:	460a      	mov	r2, r1
 8001148:	71da      	strb	r2, [r3, #7]
			for(uint8_t i =0; i < cmd->modeParameters.color_count ; i++){
 800114a:	7dfb      	ldrb	r3, [r7, #23]
 800114c:	3301      	adds	r3, #1
 800114e:	75fb      	strb	r3, [r7, #23]
 8001150:	68bb      	ldr	r3, [r7, #8]
 8001152:	799b      	ldrb	r3, [r3, #6]
 8001154:	7dfa      	ldrb	r2, [r7, #23]
 8001156:	429a      	cmp	r2, r3
 8001158:	d3be      	bcc.n	80010d8 <protocol_extract_params+0x134>
			}
			cmd->fade_time = (frame[4+(cmd->modeParameters.color_count * 4) + 1] << 8) | frame[5+(cmd->modeParameters.color_count *4)+ 1];
 800115a:	68bb      	ldr	r3, [r7, #8]
 800115c:	799b      	ldrb	r3, [r3, #6]
 800115e:	009b      	lsls	r3, r3, #2
 8001160:	3305      	adds	r3, #5
 8001162:	68fa      	ldr	r2, [r7, #12]
 8001164:	4413      	add	r3, r2
 8001166:	781b      	ldrb	r3, [r3, #0]
 8001168:	b2db      	uxtb	r3, r3
 800116a:	b21b      	sxth	r3, r3
 800116c:	021b      	lsls	r3, r3, #8
 800116e:	b21a      	sxth	r2, r3
 8001170:	68bb      	ldr	r3, [r7, #8]
 8001172:	799b      	ldrb	r3, [r3, #6]
 8001174:	009b      	lsls	r3, r3, #2
 8001176:	3306      	adds	r3, #6
 8001178:	68f9      	ldr	r1, [r7, #12]
 800117a:	440b      	add	r3, r1
 800117c:	781b      	ldrb	r3, [r3, #0]
 800117e:	b2db      	uxtb	r3, r3
 8001180:	b21b      	sxth	r3, r3
 8001182:	4313      	orrs	r3, r2
 8001184:	b21b      	sxth	r3, r3
 8001186:	b29a      	uxth	r2, r3
 8001188:	68bb      	ldr	r3, [r7, #8]
 800118a:	805a      	strh	r2, [r3, #2]
			break;
 800118c:	e000      	b.n	8001190 <protocol_extract_params+0x1ec>
		}
		case DYNAMIC_BREATHING:
			break;
		default:
			break;
 800118e:	bf00      	nop
		}
		break;
 8001190:	e018      	b.n	80011c4 <protocol_extract_params+0x220>
	}
	case SET_BRIGHTNESS:
	{
		cmd->value = frame[3];
 8001192:	68fb      	ldr	r3, [r7, #12]
 8001194:	3303      	adds	r3, #3
 8001196:	781b      	ldrb	r3, [r3, #0]
 8001198:	b2da      	uxtb	r2, r3
 800119a:	68bb      	ldr	r3, [r7, #8]
 800119c:	715a      	strb	r2, [r3, #5]
		cmd->fade_time = (frame[4] << 8) | frame[5];
 800119e:	68fb      	ldr	r3, [r7, #12]
 80011a0:	3304      	adds	r3, #4
 80011a2:	781b      	ldrb	r3, [r3, #0]
 80011a4:	b2db      	uxtb	r3, r3
 80011a6:	b21b      	sxth	r3, r3
 80011a8:	021b      	lsls	r3, r3, #8
 80011aa:	b21a      	sxth	r2, r3
 80011ac:	68fb      	ldr	r3, [r7, #12]
 80011ae:	3305      	adds	r3, #5
 80011b0:	781b      	ldrb	r3, [r3, #0]
 80011b2:	b2db      	uxtb	r3, r3
 80011b4:	b21b      	sxth	r3, r3
 80011b6:	4313      	orrs	r3, r2
 80011b8:	b21b      	sxth	r3, r3
 80011ba:	b29a      	uxth	r2, r3
 80011bc:	68bb      	ldr	r3, [r7, #8]
 80011be:	805a      	strh	r2, [r3, #2]
		break;
 80011c0:	e000      	b.n	80011c4 <protocol_extract_params+0x220>
	}
	default:
		break;
 80011c2:	bf00      	nop
	}

}
 80011c4:	bf00      	nop
 80011c6:	371c      	adds	r7, #28
 80011c8:	46bd      	mov	sp, r7
 80011ca:	f85d 7b04 	ldr.w	r7, [sp], #4
 80011ce:	4770      	bx	lr

080011d0 <gpio_init>:
static uint32_t volatile *const PortCPUPD_reg = (uint32_t volatile*)0x4002080C;
static uint32_t volatile *const PortCaFL_reg = (uint32_t volatile*)0x40020820;			// Set AF on GPIOCs 1-7
static uint32_t volatile *const PortCaFH_reg = (uint32_t volatile*)0x40020824;			// Set AF on GPIOCs 8-14


void gpio_init(void){
 80011d0:	b580      	push	{r7, lr}
 80011d2:	af00      	add	r7, sp, #0
	/*(Both GPIOA and C ports share the same AHB1 clock)*/

	// Enable the RCC clock for GPIOA 
	*rccEnableAHB_reg |= (1 << 0);
 80011d4:	4b09      	ldr	r3, [pc, #36]	@ (80011fc <gpio_init+0x2c>)
 80011d6:	681b      	ldr	r3, [r3, #0]
 80011d8:	4a08      	ldr	r2, [pc, #32]	@ (80011fc <gpio_init+0x2c>)
 80011da:	f043 0301 	orr.w	r3, r3, #1
 80011de:	6013      	str	r3, [r2, #0]

	// now move ahead with debug LED and USART1 Pins configuration
	gpio_debug_led_init();			// GPIO A
 80011e0:	f000 f81e 	bl	8001220 <gpio_debug_led_init>
	gpio_uart1_init();				// GPIO A
 80011e4:	f000 f83a 	bl	800125c <gpio_uart1_init>

	/* Enable the RCC clock for GPIOC */
	*rccEnableAHB_reg |= (1 << 2);
 80011e8:	4b04      	ldr	r3, [pc, #16]	@ (80011fc <gpio_init+0x2c>)
 80011ea:	681b      	ldr	r3, [r3, #0]
 80011ec:	4a03      	ldr	r2, [pc, #12]	@ (80011fc <gpio_init+0x2c>)
 80011ee:	f043 0304 	orr.w	r3, r3, #4
 80011f2:	6013      	str	r3, [r2, #0]
	gpio_tim3_init();
 80011f4:	f000 f938 	bl	8001468 <gpio_tim3_init>

}
 80011f8:	bf00      	nop
 80011fa:	bd80      	pop	{r7, pc}
 80011fc:	40023830 	.word	0x40023830

08001200 <gpio_debug_led_toggle>:

void gpio_debug_led_toggle(){
 8001200:	b480      	push	{r7}
 8001202:	af00      	add	r7, sp, #0
	*PortAOpData_reg ^= (1 << 6);	// Toggle the LED
 8001204:	4b05      	ldr	r3, [pc, #20]	@ (800121c <gpio_debug_led_toggle+0x1c>)
 8001206:	681b      	ldr	r3, [r3, #0]
 8001208:	4a04      	ldr	r2, [pc, #16]	@ (800121c <gpio_debug_led_toggle+0x1c>)
 800120a:	f083 0340 	eor.w	r3, r3, #64	@ 0x40
 800120e:	6013      	str	r3, [r2, #0]
}
 8001210:	bf00      	nop
 8001212:	46bd      	mov	sp, r7
 8001214:	f85d 7b04 	ldr.w	r7, [sp], #4
 8001218:	4770      	bx	lr
 800121a:	bf00      	nop
 800121c:	40020014 	.word	0x40020014

08001220 <gpio_debug_led_init>:


static void gpio_debug_led_init(void){
 8001220:	b480      	push	{r7}
 8001222:	af00      	add	r7, sp, #0
	/* Configure the mode of the GPIOA pin as Output */
	*PortAMode_reg &= ~(3<< 12);	// Clear the 12 and 13 bits first
 8001224:	4b0b      	ldr	r3, [pc, #44]	@ (8001254 <gpio_debug_led_init+0x34>)
 8001226:	681b      	ldr	r3, [r3, #0]
 8001228:	4a0a      	ldr	r2, [pc, #40]	@ (8001254 <gpio_debug_led_init+0x34>)
 800122a:	f423 5340 	bic.w	r3, r3, #12288	@ 0x3000
 800122e:	6013      	str	r3, [r2, #0]
	*PortAMode_reg |= (1 << 12);	// Set the bit 12 to enable general purpose output mode
 8001230:	4b08      	ldr	r3, [pc, #32]	@ (8001254 <gpio_debug_led_init+0x34>)
 8001232:	681b      	ldr	r3, [r3, #0]
 8001234:	4a07      	ldr	r2, [pc, #28]	@ (8001254 <gpio_debug_led_init+0x34>)
 8001236:	f443 5380 	orr.w	r3, r3, #4096	@ 0x1000
 800123a:	6013      	str	r3, [r2, #0]

	// Set default state of LED to be OFF
	*PortAOpData_reg |= (1 << 6);	// Active Low GPIO pin
 800123c:	4b06      	ldr	r3, [pc, #24]	@ (8001258 <gpio_debug_led_init+0x38>)
 800123e:	681b      	ldr	r3, [r3, #0]
 8001240:	4a05      	ldr	r2, [pc, #20]	@ (8001258 <gpio_debug_led_init+0x38>)
 8001242:	f043 0340 	orr.w	r3, r3, #64	@ 0x40
 8001246:	6013      	str	r3, [r2, #0]
}
 8001248:	bf00      	nop
 800124a:	46bd      	mov	sp, r7
 800124c:	f85d 7b04 	ldr.w	r7, [sp], #4
 8001250:	4770      	bx	lr
 8001252:	bf00      	nop
 8001254:	40020000 	.word	0x40020000
 8001258:	40020014 	.word	0x40020014

0800125c <gpio_uart1_init>:

static void gpio_uart1_init(void){
 800125c:	b480      	push	{r7}
 800125e:	af00      	add	r7, sp, #0
	/* Configure the mode of the IO pin as Output */
	*PortAMode_reg &= ~((3 << 18) | (3 << 20));		// Clear the 18 and 19 bits first for Pin 9 and 20 and 21 for Pin 10
 8001260:	4b1a      	ldr	r3, [pc, #104]	@ (80012cc <gpio_uart1_init+0x70>)
 8001262:	681b      	ldr	r3, [r3, #0]
 8001264:	4a19      	ldr	r2, [pc, #100]	@ (80012cc <gpio_uart1_init+0x70>)
 8001266:	f423 1370 	bic.w	r3, r3, #3932160	@ 0x3c0000
 800126a:	6013      	str	r3, [r2, #0]
	*PortAMode_reg |= ((2 << 18) | (2 << 20));		// Set the bit 9 and 10 to AF mode
 800126c:	4b17      	ldr	r3, [pc, #92]	@ (80012cc <gpio_uart1_init+0x70>)
 800126e:	681b      	ldr	r3, [r3, #0]
 8001270:	4a16      	ldr	r2, [pc, #88]	@ (80012cc <gpio_uart1_init+0x70>)
 8001272:	f443 1320 	orr.w	r3, r3, #2621440	@ 0x280000
 8001276:	6013      	str	r3, [r2, #0]

	*PortASpeed_reg &= ~((3 << 18) | (3 << 20));	// Clear bits 18:20 for GPIO 9 and 10
 8001278:	4b15      	ldr	r3, [pc, #84]	@ (80012d0 <gpio_uart1_init+0x74>)
 800127a:	681b      	ldr	r3, [r3, #0]
 800127c:	4a14      	ldr	r2, [pc, #80]	@ (80012d0 <gpio_uart1_init+0x74>)
 800127e:	f423 1370 	bic.w	r3, r3, #3932160	@ 0x3c0000
 8001282:	6013      	str	r3, [r2, #0]
	*PortASpeed_reg |= ((2 << 18) | (2 << 20));		// Set GPIO 9 and 10 to be high speed pins to accomodate for higher baud rate 115200
 8001284:	4b12      	ldr	r3, [pc, #72]	@ (80012d0 <gpio_uart1_init+0x74>)
 8001286:	681b      	ldr	r3, [r3, #0]
 8001288:	4a11      	ldr	r2, [pc, #68]	@ (80012d0 <gpio_uart1_init+0x74>)
 800128a:	f443 1320 	orr.w	r3, r3, #2621440	@ 0x280000
 800128e:	6013      	str	r3, [r2, #0]

	*PortAPUPD_reg &= ~(3 << 20);					// Clear bits for GPIO 10
 8001290:	4b10      	ldr	r3, [pc, #64]	@ (80012d4 <gpio_uart1_init+0x78>)
 8001292:	681b      	ldr	r3, [r3, #0]
 8001294:	4a0f      	ldr	r2, [pc, #60]	@ (80012d4 <gpio_uart1_init+0x78>)
 8001296:	f423 1340 	bic.w	r3, r3, #3145728	@ 0x300000
 800129a:	6013      	str	r3, [r2, #0]
	*PortAPUPD_reg |= (1 << 20);					// Set GPIO 10 to 1 to pull it up to avoid noise when idle
 800129c:	4b0d      	ldr	r3, [pc, #52]	@ (80012d4 <gpio_uart1_init+0x78>)
 800129e:	681b      	ldr	r3, [r3, #0]
 80012a0:	4a0c      	ldr	r2, [pc, #48]	@ (80012d4 <gpio_uart1_init+0x78>)
 80012a2:	f443 1380 	orr.w	r3, r3, #1048576	@ 0x100000
 80012a6:	6013      	str	r3, [r2, #0]

	*PortAaFH_reg &= ~((7 << 4) | (7 << 8));		// Clear AF7 for GPIO 9 and 10
 80012a8:	4b0b      	ldr	r3, [pc, #44]	@ (80012d8 <gpio_uart1_init+0x7c>)
 80012aa:	681b      	ldr	r3, [r3, #0]
 80012ac:	4a0a      	ldr	r2, [pc, #40]	@ (80012d8 <gpio_uart1_init+0x7c>)
 80012ae:	f423 63ee 	bic.w	r3, r3, #1904	@ 0x770
 80012b2:	6013      	str	r3, [r2, #0]
	*PortAaFH_reg |= ((7 << 4) | (7 << 8));			// Set AF7 for GPIO 9 and 10
 80012b4:	4b08      	ldr	r3, [pc, #32]	@ (80012d8 <gpio_uart1_init+0x7c>)
 80012b6:	681b      	ldr	r3, [r3, #0]
 80012b8:	4a07      	ldr	r2, [pc, #28]	@ (80012d8 <gpio_uart1_init+0x7c>)
 80012ba:	f443 63ee 	orr.w	r3, r3, #1904	@ 0x770
 80012be:	6013      	str	r3, [r2, #0]

}
 80012c0:	bf00      	nop
 80012c2:	46bd      	mov	sp, r7
 80012c4:	f85d 7b04 	ldr.w	r7, [sp], #4
 80012c8:	4770      	bx	lr
 80012ca:	bf00      	nop
 80012cc:	40020000 	.word	0x40020000
 80012d0:	40020008 	.word	0x40020008
 80012d4:	4002000c 	.word	0x4002000c
 80012d8:	40020024 	.word	0x40020024

080012dc <tim3_ch1_init>:

static inline void tim3_ch1_init(void){
 80012dc:	b480      	push	{r7}
 80012de:	af00      	add	r7, sp, #0
	/* Configure the mode of the IO pin as Output */
	*PortCMode_reg &= ~(3 << 12);			// Clear 12 and 13 bits for GPIOC-6
 80012e0:	4b1a      	ldr	r3, [pc, #104]	@ (800134c <tim3_ch1_init+0x70>)
 80012e2:	681b      	ldr	r3, [r3, #0]
 80012e4:	4a19      	ldr	r2, [pc, #100]	@ (800134c <tim3_ch1_init+0x70>)
 80012e6:	f423 5340 	bic.w	r3, r3, #12288	@ 0x3000
 80012ea:	6013      	str	r3, [r2, #0]
	*PortCMode_reg |= (2 << 12);			// Set to Alternate Function Mode
 80012ec:	4b17      	ldr	r3, [pc, #92]	@ (800134c <tim3_ch1_init+0x70>)
 80012ee:	681b      	ldr	r3, [r3, #0]
 80012f0:	4a16      	ldr	r2, [pc, #88]	@ (800134c <tim3_ch1_init+0x70>)
 80012f2:	f443 5300 	orr.w	r3, r3, #8192	@ 0x2000
 80012f6:	6013      	str	r3, [r2, #0]

	*PortCoType_reg &= ~(1 << 6);			// Output Push-pull config(reset state)
 80012f8:	4b15      	ldr	r3, [pc, #84]	@ (8001350 <tim3_ch1_init+0x74>)
 80012fa:	681b      	ldr	r3, [r3, #0]
 80012fc:	4a14      	ldr	r2, [pc, #80]	@ (8001350 <tim3_ch1_init+0x74>)
 80012fe:	f023 0340 	bic.w	r3, r3, #64	@ 0x40
 8001302:	6013      	str	r3, [r2, #0]

	*PortCSpeed_reg &= ~(3 << 12);			// Clear bits 12:13 for GPIOC-6
 8001304:	4b13      	ldr	r3, [pc, #76]	@ (8001354 <tim3_ch1_init+0x78>)
 8001306:	681b      	ldr	r3, [r3, #0]
 8001308:	4a12      	ldr	r2, [pc, #72]	@ (8001354 <tim3_ch1_init+0x78>)
 800130a:	f423 5340 	bic.w	r3, r3, #12288	@ 0x3000
 800130e:	6013      	str	r3, [r2, #0]
	*PortCSpeed_reg |= (2 << 12);			// Set High speed for GPIOC-6
 8001310:	4b10      	ldr	r3, [pc, #64]	@ (8001354 <tim3_ch1_init+0x78>)
 8001312:	681b      	ldr	r3, [r3, #0]
 8001314:	4a0f      	ldr	r2, [pc, #60]	@ (8001354 <tim3_ch1_init+0x78>)
 8001316:	f443 5300 	orr.w	r3, r3, #8192	@ 0x2000
 800131a:	6013      	str	r3, [r2, #0]

	*PortCPUPD_reg &= ~(3 << 12);			// Clear bits 12:13 for GPIO 6 for no push-pull
 800131c:	4b0e      	ldr	r3, [pc, #56]	@ (8001358 <tim3_ch1_init+0x7c>)
 800131e:	681b      	ldr	r3, [r3, #0]
 8001320:	4a0d      	ldr	r2, [pc, #52]	@ (8001358 <tim3_ch1_init+0x7c>)
 8001322:	f423 5340 	bic.w	r3, r3, #12288	@ 0x3000
 8001326:	6013      	str	r3, [r2, #0]

	*PortCaFL_reg &= ~(15 << 24);			// Clear bits 24:27
 8001328:	4b0c      	ldr	r3, [pc, #48]	@ (800135c <tim3_ch1_init+0x80>)
 800132a:	681b      	ldr	r3, [r3, #0]
 800132c:	4a0b      	ldr	r2, [pc, #44]	@ (800135c <tim3_ch1_init+0x80>)
 800132e:	f023 6370 	bic.w	r3, r3, #251658240	@ 0xf000000
 8001332:	6013      	str	r3, [r2, #0]
	*PortCaFL_reg |= (2 << 24);				// AF2(TIM3) on GPIOC-6
 8001334:	4b09      	ldr	r3, [pc, #36]	@ (800135c <tim3_ch1_init+0x80>)
 8001336:	681b      	ldr	r3, [r3, #0]
 8001338:	4a08      	ldr	r2, [pc, #32]	@ (800135c <tim3_ch1_init+0x80>)
 800133a:	f043 7300 	orr.w	r3, r3, #33554432	@ 0x2000000
 800133e:	6013      	str	r3, [r2, #0]

}
 8001340:	bf00      	nop
 8001342:	46bd      	mov	sp, r7
 8001344:	f85d 7b04 	ldr.w	r7, [sp], #4
 8001348:	4770      	bx	lr
 800134a:	bf00      	nop
 800134c:	40020800 	.word	0x40020800
 8001350:	40020804 	.word	0x40020804
 8001354:	40020808 	.word	0x40020808
 8001358:	4002080c 	.word	0x4002080c
 800135c:	40020820 	.word	0x40020820

08001360 <tim3_ch2_init>:
static inline void tim3_ch2_init(void){
 8001360:	b480      	push	{r7}
 8001362:	af00      	add	r7, sp, #0
	/* Configure the mode of the IO pin as Output */
	*PortCMode_reg &= ~(3 << 14);			// Clear 14 and 15 bits for GPIOC-7
 8001364:	4b1a      	ldr	r3, [pc, #104]	@ (80013d0 <tim3_ch2_init+0x70>)
 8001366:	681b      	ldr	r3, [r3, #0]
 8001368:	4a19      	ldr	r2, [pc, #100]	@ (80013d0 <tim3_ch2_init+0x70>)
 800136a:	f423 4340 	bic.w	r3, r3, #49152	@ 0xc000
 800136e:	6013      	str	r3, [r2, #0]
	*PortCMode_reg |= (2 << 14);			// Set to Alternate Function Mode
 8001370:	4b17      	ldr	r3, [pc, #92]	@ (80013d0 <tim3_ch2_init+0x70>)
 8001372:	681b      	ldr	r3, [r3, #0]
 8001374:	4a16      	ldr	r2, [pc, #88]	@ (80013d0 <tim3_ch2_init+0x70>)
 8001376:	f443 4300 	orr.w	r3, r3, #32768	@ 0x8000
 800137a:	6013      	str	r3, [r2, #0]

	*PortCoType_reg &= ~(1 << 7);			// Output Push-pull config(reset state)
 800137c:	4b15      	ldr	r3, [pc, #84]	@ (80013d4 <tim3_ch2_init+0x74>)
 800137e:	681b      	ldr	r3, [r3, #0]
 8001380:	4a14      	ldr	r2, [pc, #80]	@ (80013d4 <tim3_ch2_init+0x74>)
 8001382:	f023 0380 	bic.w	r3, r3, #128	@ 0x80
 8001386:	6013      	str	r3, [r2, #0]

	*PortCSpeed_reg &= ~(3 << 14);			// Clear bits 14:15 for GPIOC-7
 8001388:	4b13      	ldr	r3, [pc, #76]	@ (80013d8 <tim3_ch2_init+0x78>)
 800138a:	681b      	ldr	r3, [r3, #0]
 800138c:	4a12      	ldr	r2, [pc, #72]	@ (80013d8 <tim3_ch2_init+0x78>)
 800138e:	f423 4340 	bic.w	r3, r3, #49152	@ 0xc000
 8001392:	6013      	str	r3, [r2, #0]
	*PortCSpeed_reg |= (2 << 14);			// Set High speed for GPIOC-7
 8001394:	4b10      	ldr	r3, [pc, #64]	@ (80013d8 <tim3_ch2_init+0x78>)
 8001396:	681b      	ldr	r3, [r3, #0]
 8001398:	4a0f      	ldr	r2, [pc, #60]	@ (80013d8 <tim3_ch2_init+0x78>)
 800139a:	f443 4300 	orr.w	r3, r3, #32768	@ 0x8000
 800139e:	6013      	str	r3, [r2, #0]

	*PortCPUPD_reg &= ~(3 << 14);			// Clear bits 14:15 for GPIOC-7 for no push-pull
 80013a0:	4b0e      	ldr	r3, [pc, #56]	@ (80013dc <tim3_ch2_init+0x7c>)
 80013a2:	681b      	ldr	r3, [r3, #0]
 80013a4:	4a0d      	ldr	r2, [pc, #52]	@ (80013dc <tim3_ch2_init+0x7c>)
 80013a6:	f423 4340 	bic.w	r3, r3, #49152	@ 0xc000
 80013aa:	6013      	str	r3, [r2, #0]

	*PortCaFL_reg &= ~(15 << 28);			// Clear bits 28:31
 80013ac:	4b0c      	ldr	r3, [pc, #48]	@ (80013e0 <tim3_ch2_init+0x80>)
 80013ae:	681b      	ldr	r3, [r3, #0]
 80013b0:	4a0b      	ldr	r2, [pc, #44]	@ (80013e0 <tim3_ch2_init+0x80>)
 80013b2:	f023 4370 	bic.w	r3, r3, #4026531840	@ 0xf0000000
 80013b6:	6013      	str	r3, [r2, #0]
	*PortCaFL_reg |= (2 << 28);				// AF2(TIM3) on GPIOC-7
 80013b8:	4b09      	ldr	r3, [pc, #36]	@ (80013e0 <tim3_ch2_init+0x80>)
 80013ba:	681b      	ldr	r3, [r3, #0]
 80013bc:	4a08      	ldr	r2, [pc, #32]	@ (80013e0 <tim3_ch2_init+0x80>)
 80013be:	f043 5300 	orr.w	r3, r3, #536870912	@ 0x20000000
 80013c2:	6013      	str	r3, [r2, #0]
}
 80013c4:	bf00      	nop
 80013c6:	46bd      	mov	sp, r7
 80013c8:	f85d 7b04 	ldr.w	r7, [sp], #4
 80013cc:	4770      	bx	lr
 80013ce:	bf00      	nop
 80013d0:	40020800 	.word	0x40020800
 80013d4:	40020804 	.word	0x40020804
 80013d8:	40020808 	.word	0x40020808
 80013dc:	4002080c 	.word	0x4002080c
 80013e0:	40020820 	.word	0x40020820

080013e4 <tim3_ch3_init>:
static inline void tim3_ch3_init(void){
 80013e4:	b480      	push	{r7}
 80013e6:	af00      	add	r7, sp, #0
	/* Configure the mode of the IO pin as Output */
	*PortCMode_reg &= ~(3 << 16);			// Clear 16 and 17 bits for GPIOC-8
 80013e8:	4b1a      	ldr	r3, [pc, #104]	@ (8001454 <tim3_ch3_init+0x70>)
 80013ea:	681b      	ldr	r3, [r3, #0]
 80013ec:	4a19      	ldr	r2, [pc, #100]	@ (8001454 <tim3_ch3_init+0x70>)
 80013ee:	f423 3340 	bic.w	r3, r3, #196608	@ 0x30000
 80013f2:	6013      	str	r3, [r2, #0]
	*PortCMode_reg |= (2 << 16);			// Set to Alternate Function Mode
 80013f4:	4b17      	ldr	r3, [pc, #92]	@ (8001454 <tim3_ch3_init+0x70>)
 80013f6:	681b      	ldr	r3, [r3, #0]
 80013f8:	4a16      	ldr	r2, [pc, #88]	@ (8001454 <tim3_ch3_init+0x70>)
 80013fa:	f443 3300 	orr.w	r3, r3, #131072	@ 0x20000
 80013fe:	6013      	str	r3, [r2, #0]

	*PortCoType_reg &= ~(1 << 8);			// Output Push-pull config(reset state)
 8001400:	4b15      	ldr	r3, [pc, #84]	@ (8001458 <tim3_ch3_init+0x74>)
 8001402:	681b      	ldr	r3, [r3, #0]
 8001404:	4a14      	ldr	r2, [pc, #80]	@ (8001458 <tim3_ch3_init+0x74>)
 8001406:	f423 7380 	bic.w	r3, r3, #256	@ 0x100
 800140a:	6013      	str	r3, [r2, #0]

	*PortCSpeed_reg &= ~(3 << 16);			// Clear bits 16:17 for GPIOC-8
 800140c:	4b13      	ldr	r3, [pc, #76]	@ (800145c <tim3_ch3_init+0x78>)
 800140e:	681b      	ldr	r3, [r3, #0]
 8001410:	4a12      	ldr	r2, [pc, #72]	@ (800145c <tim3_ch3_init+0x78>)
 8001412:	f423 3340 	bic.w	r3, r3, #196608	@ 0x30000
 8001416:	6013      	str	r3, [r2, #0]
	*PortCSpeed_reg |= (2 << 16);			// Set High speed for GPIOC-8
 8001418:	4b10      	ldr	r3, [pc, #64]	@ (800145c <tim3_ch3_init+0x78>)
 800141a:	681b      	ldr	r3, [r3, #0]
 800141c:	4a0f      	ldr	r2, [pc, #60]	@ (800145c <tim3_ch3_init+0x78>)
 800141e:	f443 3300 	orr.w	r3, r3, #131072	@ 0x20000
 8001422:	6013      	str	r3, [r2, #0]

	*PortCPUPD_reg &= ~(3 << 16);			// Clear bits 16:17 for GPIOC-8 for no push-pull
 8001424:	4b0e      	ldr	r3, [pc, #56]	@ (8001460 <tim3_ch3_init+0x7c>)
 8001426:	681b      	ldr	r3, [r3, #0]
 8001428:	4a0d      	ldr	r2, [pc, #52]	@ (8001460 <tim3_ch3_init+0x7c>)
 800142a:	f423 3340 	bic.w	r3, r3, #196608	@ 0x30000
 800142e:	6013      	str	r3, [r2, #0]

	*PortCaFH_reg &= ~(15 << 0);			// Clear bits 3:0
 8001430:	4b0c      	ldr	r3, [pc, #48]	@ (8001464 <tim3_ch3_init+0x80>)
 8001432:	681b      	ldr	r3, [r3, #0]
 8001434:	4a0b      	ldr	r2, [pc, #44]	@ (8001464 <tim3_ch3_init+0x80>)
 8001436:	f023 030f 	bic.w	r3, r3, #15
 800143a:	6013      	str	r3, [r2, #0]
	*PortCaFH_reg |= (2 << 0);				// AF2(TIM3) on GPIOC-8
 800143c:	4b09      	ldr	r3, [pc, #36]	@ (8001464 <tim3_ch3_init+0x80>)
 800143e:	681b      	ldr	r3, [r3, #0]
 8001440:	4a08      	ldr	r2, [pc, #32]	@ (8001464 <tim3_ch3_init+0x80>)
 8001442:	f043 0302 	orr.w	r3, r3, #2
 8001446:	6013      	str	r3, [r2, #0]

}
 8001448:	bf00      	nop
 800144a:	46bd      	mov	sp, r7
 800144c:	f85d 7b04 	ldr.w	r7, [sp], #4
 8001450:	4770      	bx	lr
 8001452:	bf00      	nop
 8001454:	40020800 	.word	0x40020800
 8001458:	40020804 	.word	0x40020804
 800145c:	40020808 	.word	0x40020808
 8001460:	4002080c 	.word	0x4002080c
 8001464:	40020824 	.word	0x40020824

08001468 <gpio_tim3_init>:

static void gpio_tim3_init(void){
 8001468:	b580      	push	{r7, lr}
 800146a:	af00      	add	r7, sp, #0
	tim3_ch1_init();			// configure PC6 for channel 1
 800146c:	f7ff ff36 	bl	80012dc <tim3_ch1_init>
	tim3_ch2_init();			// configure PC7 for channel 2
 8001470:	f7ff ff76 	bl	8001360 <tim3_ch2_init>
	tim3_ch3_init();			// configure PC8 for channel 3
 8001474:	f7ff ffb6 	bl	80013e4 <tim3_ch3_init>
}
 8001478:	bf00      	nop
 800147a:	bd80      	pop	{r7, pc}

0800147c <ch1_config>:
static uint32_t volatile *const tim3ARR_reg = (uint32_t volatile*)0x4000042C;		// To configure ARR of TIM3
static uint32_t volatile *const tim3CCR1_reg = (uint32_t volatile*)0x40000434;		// Channel 1 duty config
static uint32_t volatile *const tim3CCR2_reg = (uint32_t volatile*)0x40000438;		// Channel 2 duty config
static uint32_t volatile *const tim3CCR3_reg = (uint32_t volatile*)0x4000043C;		// Channel 3 duty config

static inline void ch1_config(void){
 800147c:	b480      	push	{r7}
 800147e:	af00      	add	r7, sp, #0
	/* Channel 1 config */
	*tim3CCM1_reg &= ~(3 << 0);		// set the channel 1 as output
 8001480:	4b0e      	ldr	r3, [pc, #56]	@ (80014bc <ch1_config+0x40>)
 8001482:	681b      	ldr	r3, [r3, #0]
 8001484:	4a0d      	ldr	r2, [pc, #52]	@ (80014bc <ch1_config+0x40>)
 8001486:	f023 0303 	bic.w	r3, r3, #3
 800148a:	6013      	str	r3, [r2, #0]
	*tim3CCM1_reg |= (1 << 3);		// set pre-load enable to avoid glitches when a new brightness command is received whilst LED is on
 800148c:	4b0b      	ldr	r3, [pc, #44]	@ (80014bc <ch1_config+0x40>)
 800148e:	681b      	ldr	r3, [r3, #0]
 8001490:	4a0a      	ldr	r2, [pc, #40]	@ (80014bc <ch1_config+0x40>)
 8001492:	f043 0308 	orr.w	r3, r3, #8
 8001496:	6013      	str	r3, [r2, #0]

	*tim3CCM1_reg &= ~(7 << 4);		// Clear OC1M(Output Compare Mode) bits
 8001498:	4b08      	ldr	r3, [pc, #32]	@ (80014bc <ch1_config+0x40>)
 800149a:	681b      	ldr	r3, [r3, #0]
 800149c:	4a07      	ldr	r2, [pc, #28]	@ (80014bc <ch1_config+0x40>)
 800149e:	f023 0370 	bic.w	r3, r3, #112	@ 0x70
 80014a2:	6013      	str	r3, [r2, #0]
	*tim3CCM1_reg |= (6 << 4);		// Set PWM Mode 1 where as long as CNT < CCR the signal stays high
 80014a4:	4b05      	ldr	r3, [pc, #20]	@ (80014bc <ch1_config+0x40>)
 80014a6:	681b      	ldr	r3, [r3, #0]
 80014a8:	4a04      	ldr	r2, [pc, #16]	@ (80014bc <ch1_config+0x40>)
 80014aa:	f043 0360 	orr.w	r3, r3, #96	@ 0x60
 80014ae:	6013      	str	r3, [r2, #0]
}
 80014b0:	bf00      	nop
 80014b2:	46bd      	mov	sp, r7
 80014b4:	f85d 7b04 	ldr.w	r7, [sp], #4
 80014b8:	4770      	bx	lr
 80014ba:	bf00      	nop
 80014bc:	40000418 	.word	0x40000418

080014c0 <ch2_config>:

static inline void ch2_config(void){
 80014c0:	b480      	push	{r7}
 80014c2:	af00      	add	r7, sp, #0
	/* Channel 2 config */
	*tim3CCM1_reg &= ~(3 << 8);		// set the channel 2 as output
 80014c4:	4b0e      	ldr	r3, [pc, #56]	@ (8001500 <ch2_config+0x40>)
 80014c6:	681b      	ldr	r3, [r3, #0]
 80014c8:	4a0d      	ldr	r2, [pc, #52]	@ (8001500 <ch2_config+0x40>)
 80014ca:	f423 7340 	bic.w	r3, r3, #768	@ 0x300
 80014ce:	6013      	str	r3, [r2, #0]
	*tim3CCM1_reg |= (1 << 11);		// set pre-load enable to avoid glitches when a new brightness command is received whilst LED is on
 80014d0:	4b0b      	ldr	r3, [pc, #44]	@ (8001500 <ch2_config+0x40>)
 80014d2:	681b      	ldr	r3, [r3, #0]
 80014d4:	4a0a      	ldr	r2, [pc, #40]	@ (8001500 <ch2_config+0x40>)
 80014d6:	f443 6300 	orr.w	r3, r3, #2048	@ 0x800
 80014da:	6013      	str	r3, [r2, #0]

	*tim3CCM1_reg &= ~(7 << 12);	// Clear OC2M(Output Compare Mode) bits
 80014dc:	4b08      	ldr	r3, [pc, #32]	@ (8001500 <ch2_config+0x40>)
 80014de:	681b      	ldr	r3, [r3, #0]
 80014e0:	4a07      	ldr	r2, [pc, #28]	@ (8001500 <ch2_config+0x40>)
 80014e2:	f423 43e0 	bic.w	r3, r3, #28672	@ 0x7000
 80014e6:	6013      	str	r3, [r2, #0]
	*tim3CCM1_reg |= (6 << 12);		// Set PWM Mode 1 where as long as CNT < CCR the signal stays high
 80014e8:	4b05      	ldr	r3, [pc, #20]	@ (8001500 <ch2_config+0x40>)
 80014ea:	681b      	ldr	r3, [r3, #0]
 80014ec:	4a04      	ldr	r2, [pc, #16]	@ (8001500 <ch2_config+0x40>)
 80014ee:	f443 43c0 	orr.w	r3, r3, #24576	@ 0x6000
 80014f2:	6013      	str	r3, [r2, #0]
}
 80014f4:	bf00      	nop
 80014f6:	46bd      	mov	sp, r7
 80014f8:	f85d 7b04 	ldr.w	r7, [sp], #4
 80014fc:	4770      	bx	lr
 80014fe:	bf00      	nop
 8001500:	40000418 	.word	0x40000418

08001504 <ch3_config>:

static inline void ch3_config(void){
 8001504:	b480      	push	{r7}
 8001506:	af00      	add	r7, sp, #0
	/*Channel 3 config */
	*tim3CCM2_reg &= ~(3 << 0);		// set the channel 3 as output
 8001508:	4b0e      	ldr	r3, [pc, #56]	@ (8001544 <ch3_config+0x40>)
 800150a:	681b      	ldr	r3, [r3, #0]
 800150c:	4a0d      	ldr	r2, [pc, #52]	@ (8001544 <ch3_config+0x40>)
 800150e:	f023 0303 	bic.w	r3, r3, #3
 8001512:	6013      	str	r3, [r2, #0]
	*tim3CCM2_reg |= (1 << 3);		// set pre-load enable to avoid glitches when a new brightness command is received whilst LED is on
 8001514:	4b0b      	ldr	r3, [pc, #44]	@ (8001544 <ch3_config+0x40>)
 8001516:	681b      	ldr	r3, [r3, #0]
 8001518:	4a0a      	ldr	r2, [pc, #40]	@ (8001544 <ch3_config+0x40>)
 800151a:	f043 0308 	orr.w	r3, r3, #8
 800151e:	6013      	str	r3, [r2, #0]

	*tim3CCM2_reg &= ~(7 << 4);		// Clear OC3M(Output Compare Mode) bits
 8001520:	4b08      	ldr	r3, [pc, #32]	@ (8001544 <ch3_config+0x40>)
 8001522:	681b      	ldr	r3, [r3, #0]
 8001524:	4a07      	ldr	r2, [pc, #28]	@ (8001544 <ch3_config+0x40>)
 8001526:	f023 0370 	bic.w	r3, r3, #112	@ 0x70
 800152a:	6013      	str	r3, [r2, #0]
	*tim3CCM2_reg |= (6 << 4);		// Set PWM Mode 1 where as long as CNT < CCR the signal stays high
 800152c:	4b05      	ldr	r3, [pc, #20]	@ (8001544 <ch3_config+0x40>)
 800152e:	681b      	ldr	r3, [r3, #0]
 8001530:	4a04      	ldr	r2, [pc, #16]	@ (8001544 <ch3_config+0x40>)
 8001532:	f043 0360 	orr.w	r3, r3, #96	@ 0x60
 8001536:	6013      	str	r3, [r2, #0]
}
 8001538:	bf00      	nop
 800153a:	46bd      	mov	sp, r7
 800153c:	f85d 7b04 	ldr.w	r7, [sp], #4
 8001540:	4770      	bx	lr
 8001542:	bf00      	nop
 8001544:	4000041c 	.word	0x4000041c

08001548 <ccm_config>:

static inline void ccm_config(void){
 8001548:	b480      	push	{r7}
 800154a:	af00      	add	r7, sp, #0
	*tim3CCEN_reg &= ~(1 << 0);
 800154c:	4b1d      	ldr	r3, [pc, #116]	@ (80015c4 <ccm_config+0x7c>)
 800154e:	681b      	ldr	r3, [r3, #0]
 8001550:	4a1c      	ldr	r2, [pc, #112]	@ (80015c4 <ccm_config+0x7c>)
 8001552:	f023 0301 	bic.w	r3, r3, #1
 8001556:	6013      	str	r3, [r2, #0]
	*tim3CCEN_reg |= (1 << 0);		// Capture/Compare 1 output enable
 8001558:	4b1a      	ldr	r3, [pc, #104]	@ (80015c4 <ccm_config+0x7c>)
 800155a:	681b      	ldr	r3, [r3, #0]
 800155c:	4a19      	ldr	r2, [pc, #100]	@ (80015c4 <ccm_config+0x7c>)
 800155e:	f043 0301 	orr.w	r3, r3, #1
 8001562:	6013      	str	r3, [r2, #0]

	*tim3CCEN_reg &= ~(1 << 1);		// Polarity set to active high
 8001564:	4b17      	ldr	r3, [pc, #92]	@ (80015c4 <ccm_config+0x7c>)
 8001566:	681b      	ldr	r3, [r3, #0]
 8001568:	4a16      	ldr	r2, [pc, #88]	@ (80015c4 <ccm_config+0x7c>)
 800156a:	f023 0302 	bic.w	r3, r3, #2
 800156e:	6013      	str	r3, [r2, #0]


	*tim3CCEN_reg &= ~(1 << 4);
 8001570:	4b14      	ldr	r3, [pc, #80]	@ (80015c4 <ccm_config+0x7c>)
 8001572:	681b      	ldr	r3, [r3, #0]
 8001574:	4a13      	ldr	r2, [pc, #76]	@ (80015c4 <ccm_config+0x7c>)
 8001576:	f023 0310 	bic.w	r3, r3, #16
 800157a:	6013      	str	r3, [r2, #0]
	*tim3CCEN_reg |= (1 << 4);		// Capture/Compare 2 output enable
 800157c:	4b11      	ldr	r3, [pc, #68]	@ (80015c4 <ccm_config+0x7c>)
 800157e:	681b      	ldr	r3, [r3, #0]
 8001580:	4a10      	ldr	r2, [pc, #64]	@ (80015c4 <ccm_config+0x7c>)
 8001582:	f043 0310 	orr.w	r3, r3, #16
 8001586:	6013      	str	r3, [r2, #0]

	*tim3CCEN_reg &= ~(1 << 5);		// Polarity set to active high
 8001588:	4b0e      	ldr	r3, [pc, #56]	@ (80015c4 <ccm_config+0x7c>)
 800158a:	681b      	ldr	r3, [r3, #0]
 800158c:	4a0d      	ldr	r2, [pc, #52]	@ (80015c4 <ccm_config+0x7c>)
 800158e:	f023 0320 	bic.w	r3, r3, #32
 8001592:	6013      	str	r3, [r2, #0]

	*tim3CCEN_reg &= ~(1 << 8);
 8001594:	4b0b      	ldr	r3, [pc, #44]	@ (80015c4 <ccm_config+0x7c>)
 8001596:	681b      	ldr	r3, [r3, #0]
 8001598:	4a0a      	ldr	r2, [pc, #40]	@ (80015c4 <ccm_config+0x7c>)
 800159a:	f423 7380 	bic.w	r3, r3, #256	@ 0x100
 800159e:	6013      	str	r3, [r2, #0]
	*tim3CCEN_reg |= (1 << 8);		// Capture/Compare 3 output enable
 80015a0:	4b08      	ldr	r3, [pc, #32]	@ (80015c4 <ccm_config+0x7c>)
 80015a2:	681b      	ldr	r3, [r3, #0]
 80015a4:	4a07      	ldr	r2, [pc, #28]	@ (80015c4 <ccm_config+0x7c>)
 80015a6:	f443 7380 	orr.w	r3, r3, #256	@ 0x100
 80015aa:	6013      	str	r3, [r2, #0]
	*tim3CCEN_reg &= ~(1 << 9);		// Polarity set to active high
 80015ac:	4b05      	ldr	r3, [pc, #20]	@ (80015c4 <ccm_config+0x7c>)
 80015ae:	681b      	ldr	r3, [r3, #0]
 80015b0:	4a04      	ldr	r2, [pc, #16]	@ (80015c4 <ccm_config+0x7c>)
 80015b2:	f423 7300 	bic.w	r3, r3, #512	@ 0x200
 80015b6:	6013      	str	r3, [r2, #0]
}
 80015b8:	bf00      	nop
 80015ba:	46bd      	mov	sp, r7
 80015bc:	f85d 7b04 	ldr.w	r7, [sp], #4
 80015c0:	4770      	bx	lr
 80015c2:	bf00      	nop
 80015c4:	40000420 	.word	0x40000420

080015c8 <pwm_init>:

void pwm_init(void){
 80015c8:	b580      	push	{r7, lr}
 80015ca:	af00      	add	r7, sp, #0
	*rccEnableAPB1_reg |= (1 << 1);		// Enable TIM3 peripheral
 80015cc:	4b17      	ldr	r3, [pc, #92]	@ (800162c <pwm_init+0x64>)
 80015ce:	681b      	ldr	r3, [r3, #0]
 80015d0:	4a16      	ldr	r2, [pc, #88]	@ (800162c <pwm_init+0x64>)
 80015d2:	f043 0302 	orr.w	r3, r3, #2
 80015d6:	6013      	str	r3, [r2, #0]


	// the following config is used to generate a PWM signal of 1KHz
	*tim3PSC_reg = 0x53;			// Set PSC as 83
 80015d8:	4b15      	ldr	r3, [pc, #84]	@ (8001630 <pwm_init+0x68>)
 80015da:	2253      	movs	r2, #83	@ 0x53
 80015dc:	601a      	str	r2, [r3, #0]
	*tim3ARR_reg = 0x3E7;			// Set ARR to 999; Controls frequency
 80015de:	4b15      	ldr	r3, [pc, #84]	@ (8001634 <pwm_init+0x6c>)
 80015e0:	f240 32e7 	movw	r2, #999	@ 0x3e7
 80015e4:	601a      	str	r2, [r3, #0]

	*tim3CR1_reg &= ~(1 << 4);		// Enable Up direction
 80015e6:	4b14      	ldr	r3, [pc, #80]	@ (8001638 <pwm_init+0x70>)
 80015e8:	681b      	ldr	r3, [r3, #0]
 80015ea:	4a13      	ldr	r2, [pc, #76]	@ (8001638 <pwm_init+0x70>)
 80015ec:	f023 0310 	bic.w	r3, r3, #16
 80015f0:	6013      	str	r3, [r2, #0]
	*tim3CR1_reg &= ~(3 << 5);		// Edge-aligned mode
 80015f2:	4b11      	ldr	r3, [pc, #68]	@ (8001638 <pwm_init+0x70>)
 80015f4:	681b      	ldr	r3, [r3, #0]
 80015f6:	4a10      	ldr	r2, [pc, #64]	@ (8001638 <pwm_init+0x70>)
 80015f8:	f023 0360 	bic.w	r3, r3, #96	@ 0x60
 80015fc:	6013      	str	r3, [r2, #0]
	*tim3CR1_reg |= (1 << 7);		// Enable ARR preload
 80015fe:	4b0e      	ldr	r3, [pc, #56]	@ (8001638 <pwm_init+0x70>)
 8001600:	681b      	ldr	r3, [r3, #0]
 8001602:	4a0d      	ldr	r2, [pc, #52]	@ (8001638 <pwm_init+0x70>)
 8001604:	f043 0380 	orr.w	r3, r3, #128	@ 0x80
 8001608:	6013      	str	r3, [r2, #0]

	ch1_config();
 800160a:	f7ff ff37 	bl	800147c <ch1_config>
	ch2_config();
 800160e:	f7ff ff57 	bl	80014c0 <ch2_config>
	ch3_config();
 8001612:	f7ff ff77 	bl	8001504 <ch3_config>

	ccm_config();
 8001616:	f7ff ff97 	bl	8001548 <ccm_config>

	*tim3CR1_reg |= (1 << 0);		// start counter
 800161a:	4b07      	ldr	r3, [pc, #28]	@ (8001638 <pwm_init+0x70>)
 800161c:	681b      	ldr	r3, [r3, #0]
 800161e:	4a06      	ldr	r2, [pc, #24]	@ (8001638 <pwm_init+0x70>)
 8001620:	f043 0301 	orr.w	r3, r3, #1
 8001624:	6013      	str	r3, [r2, #0]

}
 8001626:	bf00      	nop
 8001628:	bd80      	pop	{r7, pc}
 800162a:	bf00      	nop
 800162c:	40023840 	.word	0x40023840
 8001630:	40000428 	.word	0x40000428
 8001634:	4000042c 	.word	0x4000042c
 8001638:	40000400 	.word	0x40000400

0800163c <pwm_update>:

void pwm_update(){
 800163c:	b480      	push	{r7}
 800163e:	af00      	add	r7, sp, #0
	*tim3EG_reg |= (1 << 0);		// Update the registers
 8001640:	4b05      	ldr	r3, [pc, #20]	@ (8001658 <pwm_update+0x1c>)
 8001642:	681b      	ldr	r3, [r3, #0]
 8001644:	4a04      	ldr	r2, [pc, #16]	@ (8001658 <pwm_update+0x1c>)
 8001646:	f043 0301 	orr.w	r3, r3, #1
 800164a:	6013      	str	r3, [r2, #0]
}
 800164c:	bf00      	nop
 800164e:	46bd      	mov	sp, r7
 8001650:	f85d 7b04 	ldr.w	r7, [sp], #4
 8001654:	4770      	bx	lr
 8001656:	bf00      	nop
 8001658:	40000414 	.word	0x40000414

0800165c <pwm_set_duty>:

void pwm_set_duty(uint8_t channel, uint16_t duty){
 800165c:	b480      	push	{r7}
 800165e:	b083      	sub	sp, #12
 8001660:	af00      	add	r7, sp, #0
 8001662:	4603      	mov	r3, r0
 8001664:	460a      	mov	r2, r1
 8001666:	71fb      	strb	r3, [r7, #7]
 8001668:	4613      	mov	r3, r2
 800166a:	80bb      	strh	r3, [r7, #4]
	switch(channel){
 800166c:	79fb      	ldrb	r3, [r7, #7]
 800166e:	2b03      	cmp	r3, #3
 8001670:	d00e      	beq.n	8001690 <pwm_set_duty+0x34>
 8001672:	2b03      	cmp	r3, #3
 8001674:	dc10      	bgt.n	8001698 <pwm_set_duty+0x3c>
 8001676:	2b01      	cmp	r3, #1
 8001678:	d002      	beq.n	8001680 <pwm_set_duty+0x24>
 800167a:	2b02      	cmp	r3, #2
 800167c:	d004      	beq.n	8001688 <pwm_set_duty+0x2c>
		break;
	case blue:
		*tim3CCR3_reg = duty;
		break;
	default:
		break;
 800167e:	e00b      	b.n	8001698 <pwm_set_duty+0x3c>
		*tim3CCR1_reg = duty;
 8001680:	4a09      	ldr	r2, [pc, #36]	@ (80016a8 <pwm_set_duty+0x4c>)
 8001682:	88bb      	ldrh	r3, [r7, #4]
 8001684:	6013      	str	r3, [r2, #0]
		break;
 8001686:	e008      	b.n	800169a <pwm_set_duty+0x3e>
		*tim3CCR2_reg = duty;
 8001688:	4a08      	ldr	r2, [pc, #32]	@ (80016ac <pwm_set_duty+0x50>)
 800168a:	88bb      	ldrh	r3, [r7, #4]
 800168c:	6013      	str	r3, [r2, #0]
		break;
 800168e:	e004      	b.n	800169a <pwm_set_duty+0x3e>
		*tim3CCR3_reg = duty;
 8001690:	4a07      	ldr	r2, [pc, #28]	@ (80016b0 <pwm_set_duty+0x54>)
 8001692:	88bb      	ldrh	r3, [r7, #4]
 8001694:	6013      	str	r3, [r2, #0]
		break;
 8001696:	e000      	b.n	800169a <pwm_set_duty+0x3e>
		break;
 8001698:	bf00      	nop
	}
}
 800169a:	bf00      	nop
 800169c:	370c      	adds	r7, #12
 800169e:	46bd      	mov	sp, r7
 80016a0:	f85d 7b04 	ldr.w	r7, [sp], #4
 80016a4:	4770      	bx	lr
 80016a6:	bf00      	nop
 80016a8:	40000434 	.word	0x40000434
 80016ac:	40000438 	.word	0x40000438
 80016b0:	4000043c 	.word	0x4000043c

080016b4 <__NVIC_EnableIRQ>:
  \details Enables a device specific interrupt in the NVIC interrupt controller.
  \param [in]      IRQn  Device specific interrupt number.
  \note    IRQn must not be negative.
 */
__STATIC_INLINE void __NVIC_EnableIRQ(IRQn_Type IRQn)
{
 80016b4:	b480      	push	{r7}
 80016b6:	b083      	sub	sp, #12
 80016b8:	af00      	add	r7, sp, #0
 80016ba:	4603      	mov	r3, r0
 80016bc:	71fb      	strb	r3, [r7, #7]
  if ((int32_t)(IRQn) >= 0)
 80016be:	f997 3007 	ldrsb.w	r3, [r7, #7]
 80016c2:	2b00      	cmp	r3, #0
 80016c4:	db0b      	blt.n	80016de <__NVIC_EnableIRQ+0x2a>
  {
    __COMPILER_BARRIER();
    NVIC->ISER[(((uint32_t)IRQn) >> 5UL)] = (uint32_t)(1UL << (((uint32_t)IRQn) & 0x1FUL));
 80016c6:	79fb      	ldrb	r3, [r7, #7]
 80016c8:	f003 021f 	and.w	r2, r3, #31
 80016cc:	4907      	ldr	r1, [pc, #28]	@ (80016ec <__NVIC_EnableIRQ+0x38>)
 80016ce:	f997 3007 	ldrsb.w	r3, [r7, #7]
 80016d2:	095b      	lsrs	r3, r3, #5
 80016d4:	2001      	movs	r0, #1
 80016d6:	fa00 f202 	lsl.w	r2, r0, r2
 80016da:	f841 2023 	str.w	r2, [r1, r3, lsl #2]
    __COMPILER_BARRIER();
  }
}
 80016de:	bf00      	nop
 80016e0:	370c      	adds	r7, #12
 80016e2:	46bd      	mov	sp, r7
 80016e4:	f85d 7b04 	ldr.w	r7, [sp], #4
 80016e8:	4770      	bx	lr
 80016ea:	bf00      	nop
 80016ec:	e000e100 	.word	0xe000e100

080016f0 <TIM4_IRQHandler>:
static uint32_t volatile *const tim4ARR_reg = (uint32_t volatile*)0x4000082C;		// To configure ARR of TIM4

// set to true to call state respective timer callback function
bool volatile call_update_function = false;

void TIM4_IRQHandler(void){
 80016f0:	b480      	push	{r7}
 80016f2:	af00      	add	r7, sp, #0
	if (*tim4SR_reg & (1 << 0))   // Check UIF
 80016f4:	4b09      	ldr	r3, [pc, #36]	@ (800171c <TIM4_IRQHandler+0x2c>)
 80016f6:	681b      	ldr	r3, [r3, #0]
 80016f8:	f003 0301 	and.w	r3, r3, #1
 80016fc:	2b00      	cmp	r3, #0
 80016fe:	d008      	beq.n	8001712 <TIM4_IRQHandler+0x22>
	    {
	        *tim4SR_reg &= ~(1 << 0); // Clear UIF
 8001700:	4b06      	ldr	r3, [pc, #24]	@ (800171c <TIM4_IRQHandler+0x2c>)
 8001702:	681b      	ldr	r3, [r3, #0]
 8001704:	4a05      	ldr	r2, [pc, #20]	@ (800171c <TIM4_IRQHandler+0x2c>)
 8001706:	f023 0301 	bic.w	r3, r3, #1
 800170a:	6013      	str	r3, [r2, #0]
	        call_update_function = true;
 800170c:	4b04      	ldr	r3, [pc, #16]	@ (8001720 <TIM4_IRQHandler+0x30>)
 800170e:	2201      	movs	r2, #1
 8001710:	701a      	strb	r2, [r3, #0]
	    }
}
 8001712:	bf00      	nop
 8001714:	46bd      	mov	sp, r7
 8001716:	f85d 7b04 	ldr.w	r7, [sp], #4
 800171a:	4770      	bx	lr
 800171c:	40000810 	.word	0x40000810
 8001720:	20000162 	.word	0x20000162

08001724 <tim4_init>:

// a period of 10ms
void tim4_init(void){
 8001724:	b580      	push	{r7, lr}
 8001726:	af00      	add	r7, sp, #0
	*rccEnableAPB1_reg &= ~(1 << 2);
 8001728:	4b1d      	ldr	r3, [pc, #116]	@ (80017a0 <tim4_init+0x7c>)
 800172a:	681b      	ldr	r3, [r3, #0]
 800172c:	4a1c      	ldr	r2, [pc, #112]	@ (80017a0 <tim4_init+0x7c>)
 800172e:	f023 0304 	bic.w	r3, r3, #4
 8001732:	6013      	str	r3, [r2, #0]
	*rccEnableAPB1_reg |= (1 << 2);		// Enable APB1 clock for TIM4
 8001734:	4b1a      	ldr	r3, [pc, #104]	@ (80017a0 <tim4_init+0x7c>)
 8001736:	681b      	ldr	r3, [r3, #0]
 8001738:	4a19      	ldr	r2, [pc, #100]	@ (80017a0 <tim4_init+0x7c>)
 800173a:	f043 0304 	orr.w	r3, r3, #4
 800173e:	6013      	str	r3, [r2, #0]

	// the following config is used to generate an interrupt every 10ms
	*tim4PSC_reg = 0x53;				// Set PSC as 83
 8001740:	4b18      	ldr	r3, [pc, #96]	@ (80017a4 <tim4_init+0x80>)
 8001742:	2253      	movs	r2, #83	@ 0x53
 8001744:	601a      	str	r2, [r3, #0]
	*tim4ARR_reg = 0x270F;				// Set ARR to 9999; Controls frequency
 8001746:	4b18      	ldr	r3, [pc, #96]	@ (80017a8 <tim4_init+0x84>)
 8001748:	f242 720f 	movw	r2, #9999	@ 0x270f
 800174c:	601a      	str	r2, [r3, #0]

	*tim4CR1_reg &= ~(1 << 1);			// Enable Update event generation
 800174e:	4b17      	ldr	r3, [pc, #92]	@ (80017ac <tim4_init+0x88>)
 8001750:	681b      	ldr	r3, [r3, #0]
 8001752:	4a16      	ldr	r2, [pc, #88]	@ (80017ac <tim4_init+0x88>)
 8001754:	f023 0302 	bic.w	r3, r3, #2
 8001758:	6013      	str	r3, [r2, #0]
	*tim4CR1_reg |= (1 << 2);			// Only have counter overflow as an update source
 800175a:	4b14      	ldr	r3, [pc, #80]	@ (80017ac <tim4_init+0x88>)
 800175c:	681b      	ldr	r3, [r3, #0]
 800175e:	4a13      	ldr	r2, [pc, #76]	@ (80017ac <tim4_init+0x88>)
 8001760:	f043 0304 	orr.w	r3, r3, #4
 8001764:	6013      	str	r3, [r2, #0]
	*tim4CR1_reg |= (1 << 4);			// enable up counting
 8001766:	4b11      	ldr	r3, [pc, #68]	@ (80017ac <tim4_init+0x88>)
 8001768:	681b      	ldr	r3, [r3, #0]
 800176a:	4a10      	ldr	r2, [pc, #64]	@ (80017ac <tim4_init+0x88>)
 800176c:	f043 0310 	orr.w	r3, r3, #16
 8001770:	6013      	str	r3, [r2, #0]
	*tim4CR1_reg &= ~(3 << 5);			// Set Edge-aligned mode
 8001772:	4b0e      	ldr	r3, [pc, #56]	@ (80017ac <tim4_init+0x88>)
 8001774:	681b      	ldr	r3, [r3, #0]
 8001776:	4a0d      	ldr	r2, [pc, #52]	@ (80017ac <tim4_init+0x88>)
 8001778:	f023 0360 	bic.w	r3, r3, #96	@ 0x60
 800177c:	6013      	str	r3, [r2, #0]
	*tim4CR1_reg |= (1 << 7);			// Enable ARR preload
 800177e:	4b0b      	ldr	r3, [pc, #44]	@ (80017ac <tim4_init+0x88>)
 8001780:	681b      	ldr	r3, [r3, #0]
 8001782:	4a0a      	ldr	r2, [pc, #40]	@ (80017ac <tim4_init+0x88>)
 8001784:	f043 0380 	orr.w	r3, r3, #128	@ 0x80
 8001788:	6013      	str	r3, [r2, #0]

	*tim4DIER_reg |= (1 << 0);			// Enable update interrupt
 800178a:	4b09      	ldr	r3, [pc, #36]	@ (80017b0 <tim4_init+0x8c>)
 800178c:	681b      	ldr	r3, [r3, #0]
 800178e:	4a08      	ldr	r2, [pc, #32]	@ (80017b0 <tim4_init+0x8c>)
 8001790:	f043 0301 	orr.w	r3, r3, #1
 8001794:	6013      	str	r3, [r2, #0]

	NVIC_EnableIRQ(TIM4_IRQn);			// Enable TIM4 interrupt in the NVIC
 8001796:	201e      	movs	r0, #30
 8001798:	f7ff ff8c 	bl	80016b4 <__NVIC_EnableIRQ>
}
 800179c:	bf00      	nop
 800179e:	bd80      	pop	{r7, pc}
 80017a0:	40023840 	.word	0x40023840
 80017a4:	40000828 	.word	0x40000828
 80017a8:	4000082c 	.word	0x4000082c
 80017ac:	40000800 	.word	0x40000800
 80017b0:	4000080c 	.word	0x4000080c

080017b4 <tim4_start>:

// start the timer
void tim4_start(void){
 80017b4:	b480      	push	{r7}
 80017b6:	af00      	add	r7, sp, #0
	*tim4CR1_reg |= (1 << 0);			// Start counter
 80017b8:	4b05      	ldr	r3, [pc, #20]	@ (80017d0 <tim4_start+0x1c>)
 80017ba:	681b      	ldr	r3, [r3, #0]
 80017bc:	4a04      	ldr	r2, [pc, #16]	@ (80017d0 <tim4_start+0x1c>)
 80017be:	f043 0301 	orr.w	r3, r3, #1
 80017c2:	6013      	str	r3, [r2, #0]
}
 80017c4:	bf00      	nop
 80017c6:	46bd      	mov	sp, r7
 80017c8:	f85d 7b04 	ldr.w	r7, [sp], #4
 80017cc:	4770      	bx	lr
 80017ce:	bf00      	nop
 80017d0:	40000800 	.word	0x40000800

080017d4 <tim4_stop>:

void tim4_stop(void){
 80017d4:	b480      	push	{r7}
 80017d6:	af00      	add	r7, sp, #0
	*tim4CR1_reg &= ~(1 << 0);			// Stop counter
 80017d8:	4b08      	ldr	r3, [pc, #32]	@ (80017fc <tim4_stop+0x28>)
 80017da:	681b      	ldr	r3, [r3, #0]
 80017dc:	4a07      	ldr	r2, [pc, #28]	@ (80017fc <tim4_stop+0x28>)
 80017de:	f023 0301 	bic.w	r3, r3, #1
 80017e2:	6013      	str	r3, [r2, #0]
	*tim4EG_reg |= (1 << 0);			// Reset the counter
 80017e4:	4b06      	ldr	r3, [pc, #24]	@ (8001800 <tim4_stop+0x2c>)
 80017e6:	681b      	ldr	r3, [r3, #0]
 80017e8:	4a05      	ldr	r2, [pc, #20]	@ (8001800 <tim4_stop+0x2c>)
 80017ea:	f043 0301 	orr.w	r3, r3, #1
 80017ee:	6013      	str	r3, [r2, #0]
}
 80017f0:	bf00      	nop
 80017f2:	46bd      	mov	sp, r7
 80017f4:	f85d 7b04 	ldr.w	r7, [sp], #4
 80017f8:	4770      	bx	lr
 80017fa:	bf00      	nop
 80017fc:	40000800 	.word	0x40000800
 8001800:	40000814 	.word	0x40000814

08001804 <__NVIC_EnableIRQ>:
{
 8001804:	b480      	push	{r7}
 8001806:	b083      	sub	sp, #12
 8001808:	af00      	add	r7, sp, #0
 800180a:	4603      	mov	r3, r0
 800180c:	71fb      	strb	r3, [r7, #7]
  if ((int32_t)(IRQn) >= 0)
 800180e:	f997 3007 	ldrsb.w	r3, [r7, #7]
 8001812:	2b00      	cmp	r3, #0
 8001814:	db0b      	blt.n	800182e <__NVIC_EnableIRQ+0x2a>
    NVIC->ISER[(((uint32_t)IRQn) >> 5UL)] = (uint32_t)(1UL << (((uint32_t)IRQn) & 0x1FUL));
 8001816:	79fb      	ldrb	r3, [r7, #7]
 8001818:	f003 021f 	and.w	r2, r3, #31
 800181c:	4907      	ldr	r1, [pc, #28]	@ (800183c <__NVIC_EnableIRQ+0x38>)
 800181e:	f997 3007 	ldrsb.w	r3, [r7, #7]
 8001822:	095b      	lsrs	r3, r3, #5
 8001824:	2001      	movs	r0, #1
 8001826:	fa00 f202 	lsl.w	r2, r0, r2
 800182a:	f841 2023 	str.w	r2, [r1, r3, lsl #2]
}
 800182e:	bf00      	nop
 8001830:	370c      	adds	r7, #12
 8001832:	46bd      	mov	sp, r7
 8001834:	f85d 7b04 	ldr.w	r7, [sp], #4
 8001838:	4770      	bx	lr
 800183a:	bf00      	nop
 800183c:	e000e100 	.word	0xe000e100

08001840 <USART1_IRQHandler>:
//static uint32_t volatile *const usartCR3_reg = (uint32_t volatile*)0x40011014;			// Control Register 3

volatile static uint8_t frame_length = 0;


void USART1_IRQHandler(void){
 8001840:	b480      	push	{r7}
 8001842:	af00      	add	r7, sp, #0
	volatile static uint8_t i = 0;
	if((*usart1ST_reg >> 5) & 1){
 8001844:	4b35      	ldr	r3, [pc, #212]	@ (800191c <USART1_IRQHandler+0xdc>)
 8001846:	681b      	ldr	r3, [r3, #0]
 8001848:	095b      	lsrs	r3, r3, #5
 800184a:	f003 0301 	and.w	r3, r3, #1
 800184e:	2b00      	cmp	r3, #0
 8001850:	d060      	beq.n	8001914 <USART1_IRQHandler+0xd4>
		if(i == 0){
 8001852:	4b33      	ldr	r3, [pc, #204]	@ (8001920 <USART1_IRQHandler+0xe0>)
 8001854:	781b      	ldrb	r3, [r3, #0]
 8001856:	b2db      	uxtb	r3, r3
 8001858:	2b00      	cmp	r3, #0
 800185a:	d115      	bne.n	8001888 <USART1_IRQHandler+0x48>
			recvCommand[i] = *usart1DT_reg;
 800185c:	4b31      	ldr	r3, [pc, #196]	@ (8001924 <USART1_IRQHandler+0xe4>)
 800185e:	6819      	ldr	r1, [r3, #0]
 8001860:	4b2f      	ldr	r3, [pc, #188]	@ (8001920 <USART1_IRQHandler+0xe0>)
 8001862:	781b      	ldrb	r3, [r3, #0]
 8001864:	b2db      	uxtb	r3, r3
 8001866:	461a      	mov	r2, r3
 8001868:	b2c9      	uxtb	r1, r1
 800186a:	4b2f      	ldr	r3, [pc, #188]	@ (8001928 <USART1_IRQHandler+0xe8>)
 800186c:	5499      	strb	r1, [r3, r2]
			if(recvCommand[i] != 0xAA){			// check for a valid command here as well before pushing the frame to parser.
 800186e:	4b2c      	ldr	r3, [pc, #176]	@ (8001920 <USART1_IRQHandler+0xe0>)
 8001870:	781b      	ldrb	r3, [r3, #0]
 8001872:	b2db      	uxtb	r3, r3
 8001874:	461a      	mov	r2, r3
 8001876:	4b2c      	ldr	r3, [pc, #176]	@ (8001928 <USART1_IRQHandler+0xe8>)
 8001878:	5c9b      	ldrb	r3, [r3, r2]
 800187a:	b2db      	uxtb	r3, r3
 800187c:	2baa      	cmp	r3, #170	@ 0xaa
 800187e:	d031      	beq.n	80018e4 <USART1_IRQHandler+0xa4>
				i=0;
 8001880:	4b27      	ldr	r3, [pc, #156]	@ (8001920 <USART1_IRQHandler+0xe0>)
 8001882:	2200      	movs	r2, #0
 8001884:	701a      	strb	r2, [r3, #0]
				return;
 8001886:	e045      	b.n	8001914 <USART1_IRQHandler+0xd4>
			}
		}else if(i == 1){
 8001888:	4b25      	ldr	r3, [pc, #148]	@ (8001920 <USART1_IRQHandler+0xe0>)
 800188a:	781b      	ldrb	r3, [r3, #0]
 800188c:	b2db      	uxtb	r3, r3
 800188e:	2b01      	cmp	r3, #1
 8001890:	d11f      	bne.n	80018d2 <USART1_IRQHandler+0x92>
			recvCommand[i] = *usart1DT_reg;
 8001892:	4b24      	ldr	r3, [pc, #144]	@ (8001924 <USART1_IRQHandler+0xe4>)
 8001894:	6819      	ldr	r1, [r3, #0]
 8001896:	4b22      	ldr	r3, [pc, #136]	@ (8001920 <USART1_IRQHandler+0xe0>)
 8001898:	781b      	ldrb	r3, [r3, #0]
 800189a:	b2db      	uxtb	r3, r3
 800189c:	461a      	mov	r2, r3
 800189e:	b2c9      	uxtb	r1, r1
 80018a0:	4b21      	ldr	r3, [pc, #132]	@ (8001928 <USART1_IRQHandler+0xe8>)
 80018a2:	5499      	strb	r1, [r3, r2]
			frame_length = recvCommand[i];
 80018a4:	4b1e      	ldr	r3, [pc, #120]	@ (8001920 <USART1_IRQHandler+0xe0>)
 80018a6:	781b      	ldrb	r3, [r3, #0]
 80018a8:	b2db      	uxtb	r3, r3
 80018aa:	461a      	mov	r2, r3
 80018ac:	4b1e      	ldr	r3, [pc, #120]	@ (8001928 <USART1_IRQHandler+0xe8>)
 80018ae:	5c9b      	ldrb	r3, [r3, r2]
 80018b0:	b2da      	uxtb	r2, r3
 80018b2:	4b1e      	ldr	r3, [pc, #120]	@ (800192c <USART1_IRQHandler+0xec>)
 80018b4:	701a      	strb	r2, [r3, #0]
			if(frame_length < 4 || frame_length > 32){
 80018b6:	4b1d      	ldr	r3, [pc, #116]	@ (800192c <USART1_IRQHandler+0xec>)
 80018b8:	781b      	ldrb	r3, [r3, #0]
 80018ba:	b2db      	uxtb	r3, r3
 80018bc:	2b03      	cmp	r3, #3
 80018be:	d904      	bls.n	80018ca <USART1_IRQHandler+0x8a>
 80018c0:	4b1a      	ldr	r3, [pc, #104]	@ (800192c <USART1_IRQHandler+0xec>)
 80018c2:	781b      	ldrb	r3, [r3, #0]
 80018c4:	b2db      	uxtb	r3, r3
 80018c6:	2b20      	cmp	r3, #32
 80018c8:	d90c      	bls.n	80018e4 <USART1_IRQHandler+0xa4>
				i = 0;
 80018ca:	4b15      	ldr	r3, [pc, #84]	@ (8001920 <USART1_IRQHandler+0xe0>)
 80018cc:	2200      	movs	r2, #0
 80018ce:	701a      	strb	r2, [r3, #0]
				return;
 80018d0:	e020      	b.n	8001914 <USART1_IRQHandler+0xd4>
			}
		}else{
			recvCommand[i] = *usart1DT_reg;		// store the byte in usart1DT_reg to the command position i
 80018d2:	4b14      	ldr	r3, [pc, #80]	@ (8001924 <USART1_IRQHandler+0xe4>)
 80018d4:	6819      	ldr	r1, [r3, #0]
 80018d6:	4b12      	ldr	r3, [pc, #72]	@ (8001920 <USART1_IRQHandler+0xe0>)
 80018d8:	781b      	ldrb	r3, [r3, #0]
 80018da:	b2db      	uxtb	r3, r3
 80018dc:	461a      	mov	r2, r3
 80018de:	b2c9      	uxtb	r1, r1
 80018e0:	4b11      	ldr	r3, [pc, #68]	@ (8001928 <USART1_IRQHandler+0xe8>)
 80018e2:	5499      	strb	r1, [r3, r2]
		}

		if(i == (frame_length - 1)){
 80018e4:	4b0e      	ldr	r3, [pc, #56]	@ (8001920 <USART1_IRQHandler+0xe0>)
 80018e6:	781b      	ldrb	r3, [r3, #0]
 80018e8:	b2db      	uxtb	r3, r3
 80018ea:	461a      	mov	r2, r3
 80018ec:	4b0f      	ldr	r3, [pc, #60]	@ (800192c <USART1_IRQHandler+0xec>)
 80018ee:	781b      	ldrb	r3, [r3, #0]
 80018f0:	b2db      	uxtb	r3, r3
 80018f2:	3b01      	subs	r3, #1
 80018f4:	429a      	cmp	r2, r3
 80018f6:	d106      	bne.n	8001906 <USART1_IRQHandler+0xc6>
			i=0;
 80018f8:	4b09      	ldr	r3, [pc, #36]	@ (8001920 <USART1_IRQHandler+0xe0>)
 80018fa:	2200      	movs	r2, #0
 80018fc:	701a      	strb	r2, [r3, #0]
			command_recv = true;
 80018fe:	4b0c      	ldr	r3, [pc, #48]	@ (8001930 <USART1_IRQHandler+0xf0>)
 8001900:	2201      	movs	r2, #1
 8001902:	701a      	strb	r2, [r3, #0]
 8001904:	e006      	b.n	8001914 <USART1_IRQHandler+0xd4>
		}else{
			i+=1;
 8001906:	4b06      	ldr	r3, [pc, #24]	@ (8001920 <USART1_IRQHandler+0xe0>)
 8001908:	781b      	ldrb	r3, [r3, #0]
 800190a:	b2db      	uxtb	r3, r3
 800190c:	3301      	adds	r3, #1
 800190e:	b2da      	uxtb	r2, r3
 8001910:	4b03      	ldr	r3, [pc, #12]	@ (8001920 <USART1_IRQHandler+0xe0>)
 8001912:	701a      	strb	r2, [r3, #0]
		}
	}
}
 8001914:	46bd      	mov	sp, r7
 8001916:	f85d 7b04 	ldr.w	r7, [sp], #4
 800191a:	4770      	bx	lr
 800191c:	40011000 	.word	0x40011000
 8001920:	20000164 	.word	0x20000164
 8001924:	40011004 	.word	0x40011004
 8001928:	2000012c 	.word	0x2000012c
 800192c:	20000163 	.word	0x20000163
 8001930:	20000128 	.word	0x20000128

08001934 <uart1_init>:


void uart1_init(void){
 8001934:	b580      	push	{r7, lr}
 8001936:	af00      	add	r7, sp, #0
	// init heartbeat acknowledgement array
	*rccEnableAPB2_reg |= (1 << 4);					// Enable USART1 Clock; this step is necessary to further configure the peripheral; if not done any changes wouldnt be reflected
 8001938:	4b1c      	ldr	r3, [pc, #112]	@ (80019ac <uart1_init+0x78>)
 800193a:	681b      	ldr	r3, [r3, #0]
 800193c:	4a1b      	ldr	r2, [pc, #108]	@ (80019ac <uart1_init+0x78>)
 800193e:	f043 0310 	orr.w	r3, r3, #16
 8001942:	6013      	str	r3, [r2, #0]

	*usartCR1_reg &= ~((1 << 15));					// Keep OVER8 at zero to keep over-sampling by 16
 8001944:	4b1a      	ldr	r3, [pc, #104]	@ (80019b0 <uart1_init+0x7c>)
 8001946:	681b      	ldr	r3, [r3, #0]
 8001948:	4a19      	ldr	r2, [pc, #100]	@ (80019b0 <uart1_init+0x7c>)
 800194a:	f423 4300 	bic.w	r3, r3, #32768	@ 0x8000
 800194e:	6013      	str	r3, [r2, #0]

	*usart1BRR_reg = ((45 << 4) | (9 << 0));		// Mantissa|Fraction ; should be assigned and not OR for deterministic purposes
 8001950:	4b18      	ldr	r3, [pc, #96]	@ (80019b4 <uart1_init+0x80>)
 8001952:	f240 22d9 	movw	r2, #729	@ 0x2d9
 8001956:	601a      	str	r2, [r3, #0]

	*usartCR1_reg |= ((1 << 2));					// Enable Receiver
 8001958:	4b15      	ldr	r3, [pc, #84]	@ (80019b0 <uart1_init+0x7c>)
 800195a:	681b      	ldr	r3, [r3, #0]
 800195c:	4a14      	ldr	r2, [pc, #80]	@ (80019b0 <uart1_init+0x7c>)
 800195e:	f043 0304 	orr.w	r3, r3, #4
 8001962:	6013      	str	r3, [r2, #0]
	*usartCR1_reg |= ((1 << 3));					// Enable Transmitter
 8001964:	4b12      	ldr	r3, [pc, #72]	@ (80019b0 <uart1_init+0x7c>)
 8001966:	681b      	ldr	r3, [r3, #0]
 8001968:	4a11      	ldr	r2, [pc, #68]	@ (80019b0 <uart1_init+0x7c>)
 800196a:	f043 0308 	orr.w	r3, r3, #8
 800196e:	6013      	str	r3, [r2, #0]
	*usartCR1_reg |= ((1 << 5));					// Enable Receiver Interrupt(RXNE=1)
 8001970:	4b0f      	ldr	r3, [pc, #60]	@ (80019b0 <uart1_init+0x7c>)
 8001972:	681b      	ldr	r3, [r3, #0]
 8001974:	4a0e      	ldr	r2, [pc, #56]	@ (80019b0 <uart1_init+0x7c>)
 8001976:	f043 0320 	orr.w	r3, r3, #32
 800197a:	6013      	str	r3, [r2, #0]
	*usartCR1_reg &= ~((1 << 12));					// Keep M at zero for 8 data bits word
 800197c:	4b0c      	ldr	r3, [pc, #48]	@ (80019b0 <uart1_init+0x7c>)
 800197e:	681b      	ldr	r3, [r3, #0]
 8001980:	4a0b      	ldr	r2, [pc, #44]	@ (80019b0 <uart1_init+0x7c>)
 8001982:	f423 5380 	bic.w	r3, r3, #4096	@ 0x1000
 8001986:	6013      	str	r3, [r2, #0]
	*usartCR2_reg &= ~(3 << 12);					// Ensure STOP bit(s) is set to 1
 8001988:	4b0b      	ldr	r3, [pc, #44]	@ (80019b8 <uart1_init+0x84>)
 800198a:	681b      	ldr	r3, [r3, #0]
 800198c:	4a0a      	ldr	r2, [pc, #40]	@ (80019b8 <uart1_init+0x84>)
 800198e:	f423 5340 	bic.w	r3, r3, #12288	@ 0x3000
 8001992:	6013      	str	r3, [r2, #0]

	NVIC_EnableIRQ(USART1_IRQn);			// Enable USART interrupt in the NVIC
 8001994:	2025      	movs	r0, #37	@ 0x25
 8001996:	f7ff ff35 	bl	8001804 <__NVIC_EnableIRQ>
	/* Now enable USART1 */
	*usartCR1_reg |= ((1 << 13));
 800199a:	4b05      	ldr	r3, [pc, #20]	@ (80019b0 <uart1_init+0x7c>)
 800199c:	681b      	ldr	r3, [r3, #0]
 800199e:	4a04      	ldr	r2, [pc, #16]	@ (80019b0 <uart1_init+0x7c>)
 80019a0:	f443 5300 	orr.w	r3, r3, #8192	@ 0x2000
 80019a4:	6013      	str	r3, [r2, #0]


}
 80019a6:	bf00      	nop
 80019a8:	bd80      	pop	{r7, pc}
 80019aa:	bf00      	nop
 80019ac:	40023844 	.word	0x40023844
 80019b0:	4001100c 	.word	0x4001100c
 80019b4:	40011008 	.word	0x40011008
 80019b8:	40011010 	.word	0x40011010

080019bc <uart1_writeHex>:

static void uart1_writeHex(uint8_t byte){
 80019bc:	b480      	push	{r7}
 80019be:	b083      	sub	sp, #12
 80019c0:	af00      	add	r7, sp, #0
 80019c2:	4603      	mov	r3, r0
 80019c4:	71fb      	strb	r3, [r7, #7]
	while(!(*usart1ST_reg & (1 << 7)));		// waiting until it becomes ready
 80019c6:	bf00      	nop
 80019c8:	4b07      	ldr	r3, [pc, #28]	@ (80019e8 <uart1_writeHex+0x2c>)
 80019ca:	681b      	ldr	r3, [r3, #0]
 80019cc:	f003 0380 	and.w	r3, r3, #128	@ 0x80
 80019d0:	2b00      	cmp	r3, #0
 80019d2:	d0f9      	beq.n	80019c8 <uart1_writeHex+0xc>
	*usart1DT_reg = byte;					// Send character a
 80019d4:	4a05      	ldr	r2, [pc, #20]	@ (80019ec <uart1_writeHex+0x30>)
 80019d6:	79fb      	ldrb	r3, [r7, #7]
 80019d8:	6013      	str	r3, [r2, #0]
	// debug line
}
 80019da:	bf00      	nop
 80019dc:	370c      	adds	r7, #12
 80019de:	46bd      	mov	sp, r7
 80019e0:	f85d 7b04 	ldr.w	r7, [sp], #4
 80019e4:	4770      	bx	lr
 80019e6:	bf00      	nop
 80019e8:	40011000 	.word	0x40011000
 80019ec:	40011004 	.word	0x40011004

080019f0 <uart1sendBuffer>:

void uart1sendBuffer(uint8_t *buff, uint8_t frameLength){
 80019f0:	b580      	push	{r7, lr}
 80019f2:	b084      	sub	sp, #16
 80019f4:	af00      	add	r7, sp, #0
 80019f6:	6078      	str	r0, [r7, #4]
 80019f8:	460b      	mov	r3, r1
 80019fa:	70fb      	strb	r3, [r7, #3]
	for(int i=0 ; i<frameLength ; i++){
 80019fc:	2300      	movs	r3, #0
 80019fe:	60fb      	str	r3, [r7, #12]
 8001a00:	e009      	b.n	8001a16 <uart1sendBuffer+0x26>
		uart1_writeHex(buff[i]);
 8001a02:	68fb      	ldr	r3, [r7, #12]
 8001a04:	687a      	ldr	r2, [r7, #4]
 8001a06:	4413      	add	r3, r2
 8001a08:	781b      	ldrb	r3, [r3, #0]
 8001a0a:	4618      	mov	r0, r3
 8001a0c:	f7ff ffd6 	bl	80019bc <uart1_writeHex>
	for(int i=0 ; i<frameLength ; i++){
 8001a10:	68fb      	ldr	r3, [r7, #12]
 8001a12:	3301      	adds	r3, #1
 8001a14:	60fb      	str	r3, [r7, #12]
 8001a16:	78fb      	ldrb	r3, [r7, #3]
 8001a18:	68fa      	ldr	r2, [r7, #12]
 8001a1a:	429a      	cmp	r2, r3
 8001a1c:	dbf1      	blt.n	8001a02 <uart1sendBuffer+0x12>
	}
}
 8001a1e:	bf00      	nop
 8001a20:	bf00      	nop
 8001a22:	3710      	adds	r7, #16
 8001a24:	46bd      	mov	sp, r7
 8001a26:	bd80      	pop	{r7, pc}

08001a28 <get_frame_length>:

uint8_t get_frame_length(void){
 8001a28:	b480      	push	{r7}
 8001a2a:	af00      	add	r7, sp, #0
	return frame_length;
 8001a2c:	4b03      	ldr	r3, [pc, #12]	@ (8001a3c <get_frame_length+0x14>)
 8001a2e:	781b      	ldrb	r3, [r3, #0]
 8001a30:	b2db      	uxtb	r3, r3
}
 8001a32:	4618      	mov	r0, r3
 8001a34:	46bd      	mov	sp, r7
 8001a36:	f85d 7b04 	ldr.w	r7, [sp], #4
 8001a3a:	4770      	bx	lr
 8001a3c:	20000163 	.word	0x20000163

08001a40 <led_set_color>:
static uint16_t req_g = 0;
static uint16_t req_b = 0;

uint16_t brightness = 1000;

void led_set_color(uint16_t r,uint16_t g,uint16_t b){
 8001a40:	b480      	push	{r7}
 8001a42:	b083      	sub	sp, #12
 8001a44:	af00      	add	r7, sp, #0
 8001a46:	4603      	mov	r3, r0
 8001a48:	80fb      	strh	r3, [r7, #6]
 8001a4a:	460b      	mov	r3, r1
 8001a4c:	80bb      	strh	r3, [r7, #4]
 8001a4e:	4613      	mov	r3, r2
 8001a50:	807b      	strh	r3, [r7, #2]
	req_r = r;
 8001a52:	4a07      	ldr	r2, [pc, #28]	@ (8001a70 <led_set_color+0x30>)
 8001a54:	88fb      	ldrh	r3, [r7, #6]
 8001a56:	8013      	strh	r3, [r2, #0]
	req_g = g;
 8001a58:	4a06      	ldr	r2, [pc, #24]	@ (8001a74 <led_set_color+0x34>)
 8001a5a:	88bb      	ldrh	r3, [r7, #4]
 8001a5c:	8013      	strh	r3, [r2, #0]
	req_b = b;
 8001a5e:	4a06      	ldr	r2, [pc, #24]	@ (8001a78 <led_set_color+0x38>)
 8001a60:	887b      	ldrh	r3, [r7, #2]
 8001a62:	8013      	strh	r3, [r2, #0]
}
 8001a64:	bf00      	nop
 8001a66:	370c      	adds	r7, #12
 8001a68:	46bd      	mov	sp, r7
 8001a6a:	f85d 7b04 	ldr.w	r7, [sp], #4
 8001a6e:	4770      	bx	lr
 8001a70:	20000166 	.word	0x20000166
 8001a74:	20000168 	.word	0x20000168
 8001a78:	2000016a 	.word	0x2000016a

08001a7c <led_update>:

void led_set_brightness(uint16_t level){
	brightness = level;
}

void led_update(){
 8001a7c:	b580      	push	{r7, lr}
 8001a7e:	af00      	add	r7, sp, #0
	pwm_set_duty(red, (999 - (brightness * req_r)/1000));
 8001a80:	4b21      	ldr	r3, [pc, #132]	@ (8001b08 <led_update+0x8c>)
 8001a82:	881b      	ldrh	r3, [r3, #0]
 8001a84:	461a      	mov	r2, r3
 8001a86:	4b21      	ldr	r3, [pc, #132]	@ (8001b0c <led_update+0x90>)
 8001a88:	881b      	ldrh	r3, [r3, #0]
 8001a8a:	fb02 f303 	mul.w	r3, r2, r3
 8001a8e:	4a20      	ldr	r2, [pc, #128]	@ (8001b10 <led_update+0x94>)
 8001a90:	fb82 1203 	smull	r1, r2, r2, r3
 8001a94:	1192      	asrs	r2, r2, #6
 8001a96:	17db      	asrs	r3, r3, #31
 8001a98:	1a9b      	subs	r3, r3, r2
 8001a9a:	b29b      	uxth	r3, r3
 8001a9c:	f203 33e7 	addw	r3, r3, #999	@ 0x3e7
 8001aa0:	b29b      	uxth	r3, r3
 8001aa2:	4619      	mov	r1, r3
 8001aa4:	2001      	movs	r0, #1
 8001aa6:	f7ff fdd9 	bl	800165c <pwm_set_duty>
	pwm_set_duty(green, (999 - (brightness * req_g)/1000));
 8001aaa:	4b17      	ldr	r3, [pc, #92]	@ (8001b08 <led_update+0x8c>)
 8001aac:	881b      	ldrh	r3, [r3, #0]
 8001aae:	461a      	mov	r2, r3
 8001ab0:	4b18      	ldr	r3, [pc, #96]	@ (8001b14 <led_update+0x98>)
 8001ab2:	881b      	ldrh	r3, [r3, #0]
 8001ab4:	fb02 f303 	mul.w	r3, r2, r3
 8001ab8:	4a15      	ldr	r2, [pc, #84]	@ (8001b10 <led_update+0x94>)
 8001aba:	fb82 1203 	smull	r1, r2, r2, r3
 8001abe:	1192      	asrs	r2, r2, #6
 8001ac0:	17db      	asrs	r3, r3, #31
 8001ac2:	1a9b      	subs	r3, r3, r2
 8001ac4:	b29b      	uxth	r3, r3
 8001ac6:	f203 33e7 	addw	r3, r3, #999	@ 0x3e7
 8001aca:	b29b      	uxth	r3, r3
 8001acc:	4619      	mov	r1, r3
 8001ace:	2002      	movs	r0, #2
 8001ad0:	f7ff fdc4 	bl	800165c <pwm_set_duty>
	pwm_set_duty(blue,(999 - (brightness * req_b)/1000));
 8001ad4:	4b0c      	ldr	r3, [pc, #48]	@ (8001b08 <led_update+0x8c>)
 8001ad6:	881b      	ldrh	r3, [r3, #0]
 8001ad8:	461a      	mov	r2, r3
 8001ada:	4b0f      	ldr	r3, [pc, #60]	@ (8001b18 <led_update+0x9c>)
 8001adc:	881b      	ldrh	r3, [r3, #0]
 8001ade:	fb02 f303 	mul.w	r3, r2, r3
 8001ae2:	4a0b      	ldr	r2, [pc, #44]	@ (8001b10 <led_update+0x94>)
 8001ae4:	fb82 1203 	smull	r1, r2, r2, r3
 8001ae8:	1192      	asrs	r2, r2, #6
 8001aea:	17db      	asrs	r3, r3, #31
 8001aec:	1a9b      	subs	r3, r3, r2
 8001aee:	b29b      	uxth	r3, r3
 8001af0:	f203 33e7 	addw	r3, r3, #999	@ 0x3e7
 8001af4:	b29b      	uxth	r3, r3
 8001af6:	4619      	mov	r1, r3
 8001af8:	2003      	movs	r0, #3
 8001afa:	f7ff fdaf 	bl	800165c <pwm_set_duty>

	pwm_update();											// defined in pwm.c
 8001afe:	f7ff fd9d 	bl	800163c <pwm_update>
}
 8001b02:	bf00      	nop
 8001b04:	bd80      	pop	{r7, pc}
 8001b06:	bf00      	nop
 8001b08:	20000000 	.word	0x20000000
 8001b0c:	20000166 	.word	0x20000166
 8001b10:	10624dd3 	.word	0x10624dd3
 8001b14:	20000168 	.word	0x20000168
 8001b18:	2000016a 	.word	0x2000016a

08001b1c <lighting_engine_init>:
#include <debug.h>


state_common_t state_common;

void lighting_engine_init(void){
 8001b1c:	b580      	push	{r7, lr}
 8001b1e:	af00      	add	r7, sp, #0
	lighting_init();
 8001b20:	f000 fbd8 	bl	80022d4 <lighting_init>
}
 8001b24:	bf00      	nop
 8001b26:	bd80      	pop	{r7, pc}

08001b28 <event_dispatcher>:

void event_dispatcher(light_command_t command){
 8001b28:	b084      	sub	sp, #16
 8001b2a:	b580      	push	{r7, lr}
 8001b2c:	af00      	add	r7, sp, #0
 8001b2e:	f107 0c08 	add.w	ip, r7, #8
 8001b32:	e88c 000f 	stmia.w	ip, {r0, r1, r2, r3}
	switch(command.event){
 8001b36:	f997 301b 	ldrsb.w	r3, [r7, #27]
 8001b3a:	2b03      	cmp	r3, #3
 8001b3c:	f000 8092 	beq.w	8001c64 <event_dispatcher+0x13c>
 8001b40:	2b03      	cmp	r3, #3
 8001b42:	f300 809f 	bgt.w	8001c84 <event_dispatcher+0x15c>
 8001b46:	2b01      	cmp	r3, #1
 8001b48:	d002      	beq.n	8001b50 <event_dispatcher+0x28>
 8001b4a:	2b02      	cmp	r3, #2
 8001b4c:	d062      	beq.n	8001c14 <event_dispatcher+0xec>
			lighting_set_rgb(state_common.hue, state_common.saturation, state_common.value, command.fade_time);
			break;
		break;
	default:
		// need to do something here
		break;
 8001b4e:	e099      	b.n	8001c84 <event_dispatcher+0x15c>
		if(((state_common.current_state = DYNAMIC_RAINBOW) || (state_common.current_state = DYNAMIC_SCENE)) && (lighting_is_fading())) timer_stop();
 8001b50:	4b50      	ldr	r3, [pc, #320]	@ (8001c94 <event_dispatcher+0x16c>)
 8001b52:	2202      	movs	r2, #2
 8001b54:	709a      	strb	r2, [r3, #2]
 8001b56:	f001 f809 	bl	8002b6c <lighting_is_fading>
 8001b5a:	4603      	mov	r3, r0
 8001b5c:	2b00      	cmp	r3, #0
 8001b5e:	d001      	beq.n	8001b64 <event_dispatcher+0x3c>
 8001b60:	f001 f810 	bl	8002b84 <timer_stop>
		switch(command.mode){
 8001b64:	7f3b      	ldrb	r3, [r7, #28]
 8001b66:	3b01      	subs	r3, #1
 8001b68:	2b03      	cmp	r3, #3
 8001b6a:	d851      	bhi.n	8001c10 <event_dispatcher+0xe8>
 8001b6c:	a201      	add	r2, pc, #4	@ (adr r2, 8001b74 <event_dispatcher+0x4c>)
 8001b6e:	f852 f023 	ldr.w	pc, [r2, r3, lsl #2]
 8001b72:	bf00      	nop
 8001b74:	08001b85 	.word	0x08001b85
 8001b78:	08001bbf 	.word	0x08001bbf
 8001b7c:	08001beb 	.word	0x08001beb
 8001b80:	08001c09 	.word	0x08001c09
			state_common.current_state = STATIC_RGB;
 8001b84:	4b43      	ldr	r3, [pc, #268]	@ (8001c94 <event_dispatcher+0x16c>)
 8001b86:	2201      	movs	r2, #1
 8001b88:	709a      	strb	r2, [r3, #2]
			state_common.hue = 22;
 8001b8a:	4b42      	ldr	r3, [pc, #264]	@ (8001c94 <event_dispatcher+0x16c>)
 8001b8c:	2216      	movs	r2, #22
 8001b8e:	801a      	strh	r2, [r3, #0]
			state_common.saturation = 255;
 8001b90:	4b40      	ldr	r3, [pc, #256]	@ (8001c94 <event_dispatcher+0x16c>)
 8001b92:	22ff      	movs	r2, #255	@ 0xff
 8001b94:	70da      	strb	r2, [r3, #3]
			state_common.value= 255;
 8001b96:	4b3f      	ldr	r3, [pc, #252]	@ (8001c94 <event_dispatcher+0x16c>)
 8001b98:	22ff      	movs	r2, #255	@ 0xff
 8001b9a:	711a      	strb	r2, [r3, #4]
			update_timer_callback(command.mode);
 8001b9c:	7f3b      	ldrb	r3, [r7, #28]
 8001b9e:	4618      	mov	r0, r3
 8001ba0:	f000 fff6 	bl	8002b90 <update_timer_callback>
			state_common.status = SUCCESS;
 8001ba4:	4b3b      	ldr	r3, [pc, #236]	@ (8001c94 <event_dispatcher+0x16c>)
 8001ba6:	2200      	movs	r2, #0
 8001ba8:	715a      	strb	r2, [r3, #5]
			lighting_set_rgb(state_common.hue, state_common.saturation, state_common.value, command.fade_time);	// set to default color i.e terracotta(brand color)
 8001baa:	4b3a      	ldr	r3, [pc, #232]	@ (8001c94 <event_dispatcher+0x16c>)
 8001bac:	8818      	ldrh	r0, [r3, #0]
 8001bae:	4b39      	ldr	r3, [pc, #228]	@ (8001c94 <event_dispatcher+0x16c>)
 8001bb0:	78d9      	ldrb	r1, [r3, #3]
 8001bb2:	4b38      	ldr	r3, [pc, #224]	@ (8001c94 <event_dispatcher+0x16c>)
 8001bb4:	791a      	ldrb	r2, [r3, #4]
 8001bb6:	897b      	ldrh	r3, [r7, #10]
 8001bb8:	f000 fc2e 	bl	8002418 <lighting_set_rgb>
			break;
 8001bbc:	e029      	b.n	8001c12 <event_dispatcher+0xea>
			state_common.current_state = DYNAMIC_RAINBOW;
 8001bbe:	4b35      	ldr	r3, [pc, #212]	@ (8001c94 <event_dispatcher+0x16c>)
 8001bc0:	2202      	movs	r2, #2
 8001bc2:	709a      	strb	r2, [r3, #2]
			state_common.hue = 0;
 8001bc4:	4b33      	ldr	r3, [pc, #204]	@ (8001c94 <event_dispatcher+0x16c>)
 8001bc6:	2200      	movs	r2, #0
 8001bc8:	801a      	strh	r2, [r3, #0]
			state_common.saturation = 1;
 8001bca:	4b32      	ldr	r3, [pc, #200]	@ (8001c94 <event_dispatcher+0x16c>)
 8001bcc:	2201      	movs	r2, #1
 8001bce:	70da      	strb	r2, [r3, #3]
			state_common.value = 1;
 8001bd0:	4b30      	ldr	r3, [pc, #192]	@ (8001c94 <event_dispatcher+0x16c>)
 8001bd2:	2201      	movs	r2, #1
 8001bd4:	711a      	strb	r2, [r3, #4]
			update_timer_callback(command.mode);
 8001bd6:	7f3b      	ldrb	r3, [r7, #28]
 8001bd8:	4618      	mov	r0, r3
 8001bda:	f000 ffd9 	bl	8002b90 <update_timer_callback>
			state_common.status = BUSY;
 8001bde:	4b2d      	ldr	r3, [pc, #180]	@ (8001c94 <event_dispatcher+0x16c>)
 8001be0:	2201      	movs	r2, #1
 8001be2:	715a      	strb	r2, [r3, #5]
			lighting_start_rainbow();
 8001be4:	f000 fd3e 	bl	8002664 <lighting_start_rainbow>
			break;
 8001be8:	e013      	b.n	8001c12 <event_dispatcher+0xea>
			state_common.current_state = DYNAMIC_SCENE;
 8001bea:	4b2a      	ldr	r3, [pc, #168]	@ (8001c94 <event_dispatcher+0x16c>)
 8001bec:	2203      	movs	r2, #3
 8001bee:	709a      	strb	r2, [r3, #2]
			update_timer_callback(command.mode);
 8001bf0:	7f3b      	ldrb	r3, [r7, #28]
 8001bf2:	4618      	mov	r0, r3
 8001bf4:	f000 ffcc 	bl	8002b90 <update_timer_callback>
			lighting_start_color_loop(command.modeParameters.color_arr , command.modeParameters.color_count, command.fade_time);
 8001bf8:	7bb9      	ldrb	r1, [r7, #14]
 8001bfa:	897a      	ldrh	r2, [r7, #10]
 8001bfc:	f107 030f 	add.w	r3, r7, #15
 8001c00:	4618      	mov	r0, r3
 8001c02:	f000 fe99 	bl	8002938 <lighting_start_color_loop>
			break;
 8001c06:	e004      	b.n	8001c12 <event_dispatcher+0xea>
			state_common.current_state = DYNAMIC_BREATHING;
 8001c08:	4b22      	ldr	r3, [pc, #136]	@ (8001c94 <event_dispatcher+0x16c>)
 8001c0a:	2204      	movs	r2, #4
 8001c0c:	709a      	strb	r2, [r3, #2]
			break;
 8001c0e:	e000      	b.n	8001c12 <event_dispatcher+0xea>
			break;
 8001c10:	bf00      	nop
		break;
 8001c12:	e038      	b.n	8001c86 <event_dispatcher+0x15e>
		switch(state_common.current_state){
 8001c14:	4b1f      	ldr	r3, [pc, #124]	@ (8001c94 <event_dispatcher+0x16c>)
 8001c16:	789b      	ldrb	r3, [r3, #2]
 8001c18:	3b01      	subs	r3, #1
 8001c1a:	2b03      	cmp	r3, #3
 8001c1c:	d820      	bhi.n	8001c60 <event_dispatcher+0x138>
 8001c1e:	a201      	add	r2, pc, #4	@ (adr r2, 8001c24 <event_dispatcher+0xfc>)
 8001c20:	f852 f023 	ldr.w	pc, [r2, r3, lsl #2]
 8001c24:	08001c35 	.word	0x08001c35
 8001c28:	08001c61 	.word	0x08001c61
 8001c2c:	08001c61 	.word	0x08001c61
 8001c30:	08001c61 	.word	0x08001c61
			state_common.hue = command.hue;
 8001c34:	893a      	ldrh	r2, [r7, #8]
 8001c36:	4b17      	ldr	r3, [pc, #92]	@ (8001c94 <event_dispatcher+0x16c>)
 8001c38:	801a      	strh	r2, [r3, #0]
			state_common.saturation = command.saturation;
 8001c3a:	7b3a      	ldrb	r2, [r7, #12]
 8001c3c:	4b15      	ldr	r3, [pc, #84]	@ (8001c94 <event_dispatcher+0x16c>)
 8001c3e:	70da      	strb	r2, [r3, #3]
			state_common.value = command.value;
 8001c40:	7b7a      	ldrb	r2, [r7, #13]
 8001c42:	4b14      	ldr	r3, [pc, #80]	@ (8001c94 <event_dispatcher+0x16c>)
 8001c44:	711a      	strb	r2, [r3, #4]
			state_common.status = SUCCESS;
 8001c46:	4b13      	ldr	r3, [pc, #76]	@ (8001c94 <event_dispatcher+0x16c>)
 8001c48:	2200      	movs	r2, #0
 8001c4a:	715a      	strb	r2, [r3, #5]
			lighting_set_rgb(state_common.hue, state_common.saturation, state_common.value, command.fade_time);
 8001c4c:	4b11      	ldr	r3, [pc, #68]	@ (8001c94 <event_dispatcher+0x16c>)
 8001c4e:	8818      	ldrh	r0, [r3, #0]
 8001c50:	4b10      	ldr	r3, [pc, #64]	@ (8001c94 <event_dispatcher+0x16c>)
 8001c52:	78d9      	ldrb	r1, [r3, #3]
 8001c54:	4b0f      	ldr	r3, [pc, #60]	@ (8001c94 <event_dispatcher+0x16c>)
 8001c56:	791a      	ldrb	r2, [r3, #4]
 8001c58:	897b      	ldrh	r3, [r7, #10]
 8001c5a:	f000 fbdd 	bl	8002418 <lighting_set_rgb>
			break;
 8001c5e:	e000      	b.n	8001c62 <event_dispatcher+0x13a>
			break;
 8001c60:	bf00      	nop
		break;
 8001c62:	e010      	b.n	8001c86 <event_dispatcher+0x15e>
			state_common.value = command.value;
 8001c64:	7b7a      	ldrb	r2, [r7, #13]
 8001c66:	4b0b      	ldr	r3, [pc, #44]	@ (8001c94 <event_dispatcher+0x16c>)
 8001c68:	711a      	strb	r2, [r3, #4]
			state_common.status = SUCCESS;
 8001c6a:	4b0a      	ldr	r3, [pc, #40]	@ (8001c94 <event_dispatcher+0x16c>)
 8001c6c:	2200      	movs	r2, #0
 8001c6e:	715a      	strb	r2, [r3, #5]
			lighting_set_rgb(state_common.hue, state_common.saturation, state_common.value, command.fade_time);
 8001c70:	4b08      	ldr	r3, [pc, #32]	@ (8001c94 <event_dispatcher+0x16c>)
 8001c72:	8818      	ldrh	r0, [r3, #0]
 8001c74:	4b07      	ldr	r3, [pc, #28]	@ (8001c94 <event_dispatcher+0x16c>)
 8001c76:	78d9      	ldrb	r1, [r3, #3]
 8001c78:	4b06      	ldr	r3, [pc, #24]	@ (8001c94 <event_dispatcher+0x16c>)
 8001c7a:	791a      	ldrb	r2, [r3, #4]
 8001c7c:	897b      	ldrh	r3, [r7, #10]
 8001c7e:	f000 fbcb 	bl	8002418 <lighting_set_rgb>
			break;
 8001c82:	e000      	b.n	8001c86 <event_dispatcher+0x15e>
		break;
 8001c84:	bf00      	nop
	}
}
 8001c86:	bf00      	nop
 8001c88:	46bd      	mov	sp, r7
 8001c8a:	e8bd 4080 	ldmia.w	sp!, {r7, lr}
 8001c8e:	b004      	add	sp, #16
 8001c90:	4770      	bx	lr
 8001c92:	bf00      	nop
 8001c94:	2000016c 	.word	0x2000016c

08001c98 <get_current_status>:


void get_current_status(uint8_t *status){
 8001c98:	b480      	push	{r7}
 8001c9a:	b083      	sub	sp, #12
 8001c9c:	af00      	add	r7, sp, #0
 8001c9e:	6078      	str	r0, [r7, #4]
	status[0] = state_common.status;
 8001ca0:	4b09      	ldr	r3, [pc, #36]	@ (8001cc8 <get_current_status+0x30>)
 8001ca2:	795a      	ldrb	r2, [r3, #5]
 8001ca4:	687b      	ldr	r3, [r7, #4]
 8001ca6:	701a      	strb	r2, [r3, #0]
	status[1] = state_common.current_state;
 8001ca8:	687b      	ldr	r3, [r7, #4]
 8001caa:	3301      	adds	r3, #1
 8001cac:	4a06      	ldr	r2, [pc, #24]	@ (8001cc8 <get_current_status+0x30>)
 8001cae:	7892      	ldrb	r2, [r2, #2]
 8001cb0:	701a      	strb	r2, [r3, #0]
	status[2] = state_common.value;
 8001cb2:	687b      	ldr	r3, [r7, #4]
 8001cb4:	3302      	adds	r3, #2
 8001cb6:	4a04      	ldr	r2, [pc, #16]	@ (8001cc8 <get_current_status+0x30>)
 8001cb8:	7912      	ldrb	r2, [r2, #4]
 8001cba:	701a      	strb	r2, [r3, #0]
}
 8001cbc:	bf00      	nop
 8001cbe:	370c      	adds	r7, #12
 8001cc0:	46bd      	mov	sp, r7
 8001cc2:	f85d 7b04 	ldr.w	r7, [sp], #4
 8001cc6:	4770      	bx	lr
 8001cc8:	2000016c 	.word	0x2000016c

08001ccc <set_timer_callback>:
bool is_active = false;				// is fade active


void (*update_callback)(void) = NULL;		// A function pointer that takes no argument and returns nothing

static void set_timer_callback(void (*callback) (void)){
 8001ccc:	b480      	push	{r7}
 8001cce:	b083      	sub	sp, #12
 8001cd0:	af00      	add	r7, sp, #0
 8001cd2:	6078      	str	r0, [r7, #4]
	update_callback = callback;
 8001cd4:	4a04      	ldr	r2, [pc, #16]	@ (8001ce8 <set_timer_callback+0x1c>)
 8001cd6:	687b      	ldr	r3, [r7, #4]
 8001cd8:	6013      	str	r3, [r2, #0]
}
 8001cda:	bf00      	nop
 8001cdc:	370c      	adds	r7, #12
 8001cde:	46bd      	mov	sp, r7
 8001ce0:	f85d 7b04 	ldr.w	r7, [sp], #4
 8001ce4:	4770      	bx	lr
 8001ce6:	bf00      	nop
 8001ce8:	200001dc 	.word	0x200001dc
 8001cec:	00000000 	.word	0x00000000

08001cf0 <hsv_to_rgb>:

static rgb hsv_to_rgb(float hue, float saturation, float value){
 8001cf0:	e92d 43b0 	stmdb	sp!, {r4, r5, r7, r8, r9, lr}
 8001cf4:	b08c      	sub	sp, #48	@ 0x30
 8001cf6:	af00      	add	r7, sp, #0
 8001cf8:	6178      	str	r0, [r7, #20]
 8001cfa:	ed87 0a04 	vstr	s0, [r7, #16]
 8001cfe:	edc7 0a03 	vstr	s1, [r7, #12]
 8001d02:	ed87 1a02 	vstr	s2, [r7, #8]
	rgb set_rgb;
	hue =fmod(hue, 360.0f);
 8001d06:	6938      	ldr	r0, [r7, #16]
 8001d08:	f7fe fbc2 	bl	8000490 <__aeabi_f2d>
 8001d0c:	4602      	mov	r2, r0
 8001d0e:	460b      	mov	r3, r1
 8001d10:	ed9f 1bd3 	vldr	d1, [pc, #844]	@ 8002060 <hsv_to_rgb+0x370>
 8001d14:	ec43 2b10 	vmov	d0, r2, r3
 8001d18:	f000 ffb4 	bl	8002c84 <fmod>
 8001d1c:	ec53 2b10 	vmov	r2, r3, d0
 8001d20:	4610      	mov	r0, r2
 8001d22:	4619      	mov	r1, r3
 8001d24:	f7fe fedc 	bl	8000ae0 <__aeabi_d2f>
 8001d28:	4603      	mov	r3, r0
 8001d2a:	613b      	str	r3, [r7, #16]
	if(hue < 0) hue+= 360.0;
 8001d2c:	edd7 7a04 	vldr	s15, [r7, #16]
 8001d30:	eef5 7ac0 	vcmpe.f32	s15, #0.0
 8001d34:	eef1 fa10 	vmrs	APSR_nzcv, fpscr
 8001d38:	d507      	bpl.n	8001d4a <hsv_to_rgb+0x5a>
 8001d3a:	edd7 7a04 	vldr	s15, [r7, #16]
 8001d3e:	ed9f 7acc 	vldr	s14, [pc, #816]	@ 8002070 <hsv_to_rgb+0x380>
 8001d42:	ee77 7a87 	vadd.f32	s15, s15, s14
 8001d46:	edc7 7a04 	vstr	s15, [r7, #16]
	if(saturation > 1.0) saturation = 1.0;
 8001d4a:	edd7 7a03 	vldr	s15, [r7, #12]
 8001d4e:	eeb7 7a00 	vmov.f32	s14, #112	@ 0x3f800000  1.0
 8001d52:	eef4 7ac7 	vcmpe.f32	s15, s14
 8001d56:	eef1 fa10 	vmrs	APSR_nzcv, fpscr
 8001d5a:	dd02      	ble.n	8001d62 <hsv_to_rgb+0x72>
 8001d5c:	f04f 537e 	mov.w	r3, #1065353216	@ 0x3f800000
 8001d60:	60fb      	str	r3, [r7, #12]
	if(value > 1.0) value = 1.0;
 8001d62:	edd7 7a02 	vldr	s15, [r7, #8]
 8001d66:	eeb7 7a00 	vmov.f32	s14, #112	@ 0x3f800000  1.0
 8001d6a:	eef4 7ac7 	vcmpe.f32	s15, s14
 8001d6e:	eef1 fa10 	vmrs	APSR_nzcv, fpscr
 8001d72:	dd02      	ble.n	8001d7a <hsv_to_rgb+0x8a>
 8001d74:	f04f 537e 	mov.w	r3, #1065353216	@ 0x3f800000
 8001d78:	60bb      	str	r3, [r7, #8]
	float chroma = saturation * value;
 8001d7a:	ed97 7a03 	vldr	s14, [r7, #12]
 8001d7e:	edd7 7a02 	vldr	s15, [r7, #8]
 8001d82:	ee67 7a27 	vmul.f32	s15, s14, s15
 8001d86:	edc7 7a0b 	vstr	s15, [r7, #44]	@ 0x2c
	float sector = hue/60;
 8001d8a:	ed97 7a04 	vldr	s14, [r7, #16]
 8001d8e:	eddf 6ab9 	vldr	s13, [pc, #740]	@ 8002074 <hsv_to_rgb+0x384>
 8001d92:	eec7 7a26 	vdiv.f32	s15, s14, s13
 8001d96:	edc7 7a0a 	vstr	s15, [r7, #40]	@ 0x28
	float variable = chroma *(1 - fabs(fmod(sector, 2.0f) - 1.0));
 8001d9a:	6af8      	ldr	r0, [r7, #44]	@ 0x2c
 8001d9c:	f7fe fb78 	bl	8000490 <__aeabi_f2d>
 8001da0:	4680      	mov	r8, r0
 8001da2:	4689      	mov	r9, r1
 8001da4:	6ab8      	ldr	r0, [r7, #40]	@ 0x28
 8001da6:	f7fe fb73 	bl	8000490 <__aeabi_f2d>
 8001daa:	4602      	mov	r2, r0
 8001dac:	460b      	mov	r3, r1
 8001dae:	ed9f 1bae 	vldr	d1, [pc, #696]	@ 8002068 <hsv_to_rgb+0x378>
 8001db2:	ec43 2b10 	vmov	d0, r2, r3
 8001db6:	f000 ff65 	bl	8002c84 <fmod>
 8001dba:	ec51 0b10 	vmov	r0, r1, d0
 8001dbe:	f04f 0200 	mov.w	r2, #0
 8001dc2:	4bad      	ldr	r3, [pc, #692]	@ (8002078 <hsv_to_rgb+0x388>)
 8001dc4:	f7fe fa04 	bl	80001d0 <__aeabi_dsub>
 8001dc8:	4602      	mov	r2, r0
 8001dca:	460b      	mov	r3, r1
 8001dcc:	4614      	mov	r4, r2
 8001dce:	f023 4500 	bic.w	r5, r3, #2147483648	@ 0x80000000
 8001dd2:	4622      	mov	r2, r4
 8001dd4:	462b      	mov	r3, r5
 8001dd6:	f04f 0000 	mov.w	r0, #0
 8001dda:	49a7      	ldr	r1, [pc, #668]	@ (8002078 <hsv_to_rgb+0x388>)
 8001ddc:	f7fe f9f8 	bl	80001d0 <__aeabi_dsub>
 8001de0:	4602      	mov	r2, r0
 8001de2:	460b      	mov	r3, r1
 8001de4:	4640      	mov	r0, r8
 8001de6:	4649      	mov	r1, r9
 8001de8:	f7fe fbaa 	bl	8000540 <__aeabi_dmul>
 8001dec:	4602      	mov	r2, r0
 8001dee:	460b      	mov	r3, r1
 8001df0:	4610      	mov	r0, r2
 8001df2:	4619      	mov	r1, r3
 8001df4:	f7fe fe74 	bl	8000ae0 <__aeabi_d2f>
 8001df8:	4603      	mov	r3, r0
 8001dfa:	627b      	str	r3, [r7, #36]	@ 0x24
	float m = value - chroma;
 8001dfc:	ed97 7a02 	vldr	s14, [r7, #8]
 8001e00:	edd7 7a0b 	vldr	s15, [r7, #44]	@ 0x2c
 8001e04:	ee77 7a67 	vsub.f32	s15, s14, s15
 8001e08:	edc7 7a08 	vstr	s15, [r7, #32]

	uint8_t i = floorf(sector);
 8001e0c:	ed97 0a0a 	vldr	s0, [r7, #40]	@ 0x28
 8001e10:	f001 f8b4 	bl	8002f7c <floorf>
 8001e14:	eef0 7a40 	vmov.f32	s15, s0
 8001e18:	eefc 7ae7 	vcvt.u32.f32	s15, s15
 8001e1c:	edc7 7a01 	vstr	s15, [r7, #4]
 8001e20:	793b      	ldrb	r3, [r7, #4]
 8001e22:	77fb      	strb	r3, [r7, #31]
	switch(i){
 8001e24:	7ffb      	ldrb	r3, [r7, #31]
 8001e26:	2b05      	cmp	r3, #5
 8001e28:	f200 8234 	bhi.w	8002294 <hsv_to_rgb+0x5a4>
 8001e2c:	a201      	add	r2, pc, #4	@ (adr r2, 8001e34 <hsv_to_rgb+0x144>)
 8001e2e:	f852 f023 	ldr.w	pc, [r2, r3, lsl #2]
 8001e32:	bf00      	nop
 8001e34:	08001e4d 	.word	0x08001e4d
 8001e38:	08001efd 	.word	0x08001efd
 8001e3c:	08001fad 	.word	0x08001fad
 8001e40:	08002085 	.word	0x08002085
 8001e44:	08002135 	.word	0x08002135
 8001e48:	080021e5 	.word	0x080021e5
	case 0:
		set_rgb.r = round((chroma+m)*999);
 8001e4c:	ed97 7a0b 	vldr	s14, [r7, #44]	@ 0x2c
 8001e50:	edd7 7a08 	vldr	s15, [r7, #32]
 8001e54:	ee77 7a27 	vadd.f32	s15, s14, s15
 8001e58:	ed9f 7a89 	vldr	s14, [pc, #548]	@ 8002080 <hsv_to_rgb+0x390>
 8001e5c:	ee67 7a87 	vmul.f32	s15, s15, s14
 8001e60:	ee17 0a90 	vmov	r0, s15
 8001e64:	f7fe fb14 	bl	8000490 <__aeabi_f2d>
 8001e68:	4602      	mov	r2, r0
 8001e6a:	460b      	mov	r3, r1
 8001e6c:	ec43 2b10 	vmov	d0, r2, r3
 8001e70:	f001 f83e 	bl	8002ef0 <round>
 8001e74:	ec53 2b10 	vmov	r2, r3, d0
 8001e78:	4610      	mov	r0, r2
 8001e7a:	4619      	mov	r1, r3
 8001e7c:	f7fe fe10 	bl	8000aa0 <__aeabi_d2uiz>
 8001e80:	4603      	mov	r3, r0
 8001e82:	b29b      	uxth	r3, r3
 8001e84:	833b      	strh	r3, [r7, #24]
		set_rgb.g = round((variable+m)*999);
 8001e86:	ed97 7a09 	vldr	s14, [r7, #36]	@ 0x24
 8001e8a:	edd7 7a08 	vldr	s15, [r7, #32]
 8001e8e:	ee77 7a27 	vadd.f32	s15, s14, s15
 8001e92:	ed9f 7a7b 	vldr	s14, [pc, #492]	@ 8002080 <hsv_to_rgb+0x390>
 8001e96:	ee67 7a87 	vmul.f32	s15, s15, s14
 8001e9a:	ee17 0a90 	vmov	r0, s15
 8001e9e:	f7fe faf7 	bl	8000490 <__aeabi_f2d>
 8001ea2:	4602      	mov	r2, r0
 8001ea4:	460b      	mov	r3, r1
 8001ea6:	ec43 2b10 	vmov	d0, r2, r3
 8001eaa:	f001 f821 	bl	8002ef0 <round>
 8001eae:	ec53 2b10 	vmov	r2, r3, d0
 8001eb2:	4610      	mov	r0, r2
 8001eb4:	4619      	mov	r1, r3
 8001eb6:	f7fe fdf3 	bl	8000aa0 <__aeabi_d2uiz>
 8001eba:	4603      	mov	r3, r0
 8001ebc:	b29b      	uxth	r3, r3
 8001ebe:	837b      	strh	r3, [r7, #26]
		set_rgb.b =round((0+m)*999);
 8001ec0:	edd7 7a08 	vldr	s15, [r7, #32]
 8001ec4:	ed9f 7a6d 	vldr	s14, [pc, #436]	@ 800207c <hsv_to_rgb+0x38c>
 8001ec8:	ee77 7a87 	vadd.f32	s15, s15, s14
 8001ecc:	ed9f 7a6c 	vldr	s14, [pc, #432]	@ 8002080 <hsv_to_rgb+0x390>
 8001ed0:	ee67 7a87 	vmul.f32	s15, s15, s14
 8001ed4:	ee17 0a90 	vmov	r0, s15
 8001ed8:	f7fe fada 	bl	8000490 <__aeabi_f2d>
 8001edc:	4602      	mov	r2, r0
 8001ede:	460b      	mov	r3, r1
 8001ee0:	ec43 2b10 	vmov	d0, r2, r3
 8001ee4:	f001 f804 	bl	8002ef0 <round>
 8001ee8:	ec53 2b10 	vmov	r2, r3, d0
 8001eec:	4610      	mov	r0, r2
 8001eee:	4619      	mov	r1, r3
 8001ef0:	f7fe fdd6 	bl	8000aa0 <__aeabi_d2uiz>
 8001ef4:	4603      	mov	r3, r0
 8001ef6:	b29b      	uxth	r3, r3
 8001ef8:	83bb      	strh	r3, [r7, #28]
		break;
 8001efa:	e1d3      	b.n	80022a4 <hsv_to_rgb+0x5b4>
	case 1:
		set_rgb.r = round((variable+m)*999);
 8001efc:	ed97 7a09 	vldr	s14, [r7, #36]	@ 0x24
 8001f00:	edd7 7a08 	vldr	s15, [r7, #32]
 8001f04:	ee77 7a27 	vadd.f32	s15, s14, s15
 8001f08:	ed9f 7a5d 	vldr	s14, [pc, #372]	@ 8002080 <hsv_to_rgb+0x390>
 8001f0c:	ee67 7a87 	vmul.f32	s15, s15, s14
 8001f10:	ee17 0a90 	vmov	r0, s15
 8001f14:	f7fe fabc 	bl	8000490 <__aeabi_f2d>
 8001f18:	4602      	mov	r2, r0
 8001f1a:	460b      	mov	r3, r1
 8001f1c:	ec43 2b10 	vmov	d0, r2, r3
 8001f20:	f000 ffe6 	bl	8002ef0 <round>
 8001f24:	ec53 2b10 	vmov	r2, r3, d0
 8001f28:	4610      	mov	r0, r2
 8001f2a:	4619      	mov	r1, r3
 8001f2c:	f7fe fdb8 	bl	8000aa0 <__aeabi_d2uiz>
 8001f30:	4603      	mov	r3, r0
 8001f32:	b29b      	uxth	r3, r3
 8001f34:	833b      	strh	r3, [r7, #24]
		set_rgb.g = round((chroma+m)*999);
 8001f36:	ed97 7a0b 	vldr	s14, [r7, #44]	@ 0x2c
 8001f3a:	edd7 7a08 	vldr	s15, [r7, #32]
 8001f3e:	ee77 7a27 	vadd.f32	s15, s14, s15
 8001f42:	ed9f 7a4f 	vldr	s14, [pc, #316]	@ 8002080 <hsv_to_rgb+0x390>
 8001f46:	ee67 7a87 	vmul.f32	s15, s15, s14
 8001f4a:	ee17 0a90 	vmov	r0, s15
 8001f4e:	f7fe fa9f 	bl	8000490 <__aeabi_f2d>
 8001f52:	4602      	mov	r2, r0
 8001f54:	460b      	mov	r3, r1
 8001f56:	ec43 2b10 	vmov	d0, r2, r3
 8001f5a:	f000 ffc9 	bl	8002ef0 <round>
 8001f5e:	ec53 2b10 	vmov	r2, r3, d0
 8001f62:	4610      	mov	r0, r2
 8001f64:	4619      	mov	r1, r3
 8001f66:	f7fe fd9b 	bl	8000aa0 <__aeabi_d2uiz>
 8001f6a:	4603      	mov	r3, r0
 8001f6c:	b29b      	uxth	r3, r3
 8001f6e:	837b      	strh	r3, [r7, #26]
		set_rgb.b = round((0+m)*999);
 8001f70:	edd7 7a08 	vldr	s15, [r7, #32]
 8001f74:	ed9f 7a41 	vldr	s14, [pc, #260]	@ 800207c <hsv_to_rgb+0x38c>
 8001f78:	ee77 7a87 	vadd.f32	s15, s15, s14
 8001f7c:	ed9f 7a40 	vldr	s14, [pc, #256]	@ 8002080 <hsv_to_rgb+0x390>
 8001f80:	ee67 7a87 	vmul.f32	s15, s15, s14
 8001f84:	ee17 0a90 	vmov	r0, s15
 8001f88:	f7fe fa82 	bl	8000490 <__aeabi_f2d>
 8001f8c:	4602      	mov	r2, r0
 8001f8e:	460b      	mov	r3, r1
 8001f90:	ec43 2b10 	vmov	d0, r2, r3
 8001f94:	f000 ffac 	bl	8002ef0 <round>
 8001f98:	ec53 2b10 	vmov	r2, r3, d0
 8001f9c:	4610      	mov	r0, r2
 8001f9e:	4619      	mov	r1, r3
 8001fa0:	f7fe fd7e 	bl	8000aa0 <__aeabi_d2uiz>
 8001fa4:	4603      	mov	r3, r0
 8001fa6:	b29b      	uxth	r3, r3
 8001fa8:	83bb      	strh	r3, [r7, #28]
		break;
 8001faa:	e17b      	b.n	80022a4 <hsv_to_rgb+0x5b4>
	case 2:
		set_rgb.r = round((0+m)*999);
 8001fac:	edd7 7a08 	vldr	s15, [r7, #32]
 8001fb0:	ed9f 7a32 	vldr	s14, [pc, #200]	@ 800207c <hsv_to_rgb+0x38c>
 8001fb4:	ee77 7a87 	vadd.f32	s15, s15, s14
 8001fb8:	ed9f 7a31 	vldr	s14, [pc, #196]	@ 8002080 <hsv_to_rgb+0x390>
 8001fbc:	ee67 7a87 	vmul.f32	s15, s15, s14
 8001fc0:	ee17 0a90 	vmov	r0, s15
 8001fc4:	f7fe fa64 	bl	8000490 <__aeabi_f2d>
 8001fc8:	4602      	mov	r2, r0
 8001fca:	460b      	mov	r3, r1
 8001fcc:	ec43 2b10 	vmov	d0, r2, r3
 8001fd0:	f000 ff8e 	bl	8002ef0 <round>
 8001fd4:	ec53 2b10 	vmov	r2, r3, d0
 8001fd8:	4610      	mov	r0, r2
 8001fda:	4619      	mov	r1, r3
 8001fdc:	f7fe fd60 	bl	8000aa0 <__aeabi_d2uiz>
 8001fe0:	4603      	mov	r3, r0
 8001fe2:	b29b      	uxth	r3, r3
 8001fe4:	833b      	strh	r3, [r7, #24]
		set_rgb.g = round((chroma+m)*999);
 8001fe6:	ed97 7a0b 	vldr	s14, [r7, #44]	@ 0x2c
 8001fea:	edd7 7a08 	vldr	s15, [r7, #32]
 8001fee:	ee77 7a27 	vadd.f32	s15, s14, s15
 8001ff2:	ed9f 7a23 	vldr	s14, [pc, #140]	@ 8002080 <hsv_to_rgb+0x390>
 8001ff6:	ee67 7a87 	vmul.f32	s15, s15, s14
 8001ffa:	ee17 0a90 	vmov	r0, s15
 8001ffe:	f7fe fa47 	bl	8000490 <__aeabi_f2d>
 8002002:	4602      	mov	r2, r0
 8002004:	460b      	mov	r3, r1
 8002006:	ec43 2b10 	vmov	d0, r2, r3
 800200a:	f000 ff71 	bl	8002ef0 <round>
 800200e:	ec53 2b10 	vmov	r2, r3, d0
 8002012:	4610      	mov	r0, r2
 8002014:	4619      	mov	r1, r3
 8002016:	f7fe fd43 	bl	8000aa0 <__aeabi_d2uiz>
 800201a:	4603      	mov	r3, r0
 800201c:	b29b      	uxth	r3, r3
 800201e:	837b      	strh	r3, [r7, #26]
		set_rgb.b = round((variable+m)*999);
 8002020:	ed97 7a09 	vldr	s14, [r7, #36]	@ 0x24
 8002024:	edd7 7a08 	vldr	s15, [r7, #32]
 8002028:	ee77 7a27 	vadd.f32	s15, s14, s15
 800202c:	ed9f 7a14 	vldr	s14, [pc, #80]	@ 8002080 <hsv_to_rgb+0x390>
 8002030:	ee67 7a87 	vmul.f32	s15, s15, s14
 8002034:	ee17 0a90 	vmov	r0, s15
 8002038:	f7fe fa2a 	bl	8000490 <__aeabi_f2d>
 800203c:	4602      	mov	r2, r0
 800203e:	460b      	mov	r3, r1
 8002040:	ec43 2b10 	vmov	d0, r2, r3
 8002044:	f000 ff54 	bl	8002ef0 <round>
 8002048:	ec53 2b10 	vmov	r2, r3, d0
 800204c:	4610      	mov	r0, r2
 800204e:	4619      	mov	r1, r3
 8002050:	f7fe fd26 	bl	8000aa0 <__aeabi_d2uiz>
 8002054:	4603      	mov	r3, r0
 8002056:	b29b      	uxth	r3, r3
 8002058:	83bb      	strh	r3, [r7, #28]
		break;
 800205a:	e123      	b.n	80022a4 <hsv_to_rgb+0x5b4>
 800205c:	f3af 8000 	nop.w
 8002060:	00000000 	.word	0x00000000
 8002064:	40768000 	.word	0x40768000
 8002068:	00000000 	.word	0x00000000
 800206c:	40000000 	.word	0x40000000
 8002070:	43b40000 	.word	0x43b40000
 8002074:	42700000 	.word	0x42700000
 8002078:	3ff00000 	.word	0x3ff00000
 800207c:	00000000 	.word	0x00000000
 8002080:	4479c000 	.word	0x4479c000
	case 3:
		set_rgb.r = round((0+m)*999);
 8002084:	edd7 7a08 	vldr	s15, [r7, #32]
 8002088:	ed1f 7a04 	vldr	s14, [pc, #-16]	@ 800207c <hsv_to_rgb+0x38c>
 800208c:	ee77 7a87 	vadd.f32	s15, s15, s14
 8002090:	ed1f 7a05 	vldr	s14, [pc, #-20]	@ 8002080 <hsv_to_rgb+0x390>
 8002094:	ee67 7a87 	vmul.f32	s15, s15, s14
 8002098:	ee17 0a90 	vmov	r0, s15
 800209c:	f7fe f9f8 	bl	8000490 <__aeabi_f2d>
 80020a0:	4602      	mov	r2, r0
 80020a2:	460b      	mov	r3, r1
 80020a4:	ec43 2b10 	vmov	d0, r2, r3
 80020a8:	f000 ff22 	bl	8002ef0 <round>
 80020ac:	ec53 2b10 	vmov	r2, r3, d0
 80020b0:	4610      	mov	r0, r2
 80020b2:	4619      	mov	r1, r3
 80020b4:	f7fe fcf4 	bl	8000aa0 <__aeabi_d2uiz>
 80020b8:	4603      	mov	r3, r0
 80020ba:	b29b      	uxth	r3, r3
 80020bc:	833b      	strh	r3, [r7, #24]
		set_rgb.g = round((variable+m)*999);
 80020be:	ed97 7a09 	vldr	s14, [r7, #36]	@ 0x24
 80020c2:	edd7 7a08 	vldr	s15, [r7, #32]
 80020c6:	ee77 7a27 	vadd.f32	s15, s14, s15
 80020ca:	ed1f 7a13 	vldr	s14, [pc, #-76]	@ 8002080 <hsv_to_rgb+0x390>
 80020ce:	ee67 7a87 	vmul.f32	s15, s15, s14
 80020d2:	ee17 0a90 	vmov	r0, s15
 80020d6:	f7fe f9db 	bl	8000490 <__aeabi_f2d>
 80020da:	4602      	mov	r2, r0
 80020dc:	460b      	mov	r3, r1
 80020de:	ec43 2b10 	vmov	d0, r2, r3
 80020e2:	f000 ff05 	bl	8002ef0 <round>
 80020e6:	ec53 2b10 	vmov	r2, r3, d0
 80020ea:	4610      	mov	r0, r2
 80020ec:	4619      	mov	r1, r3
 80020ee:	f7fe fcd7 	bl	8000aa0 <__aeabi_d2uiz>
 80020f2:	4603      	mov	r3, r0
 80020f4:	b29b      	uxth	r3, r3
 80020f6:	837b      	strh	r3, [r7, #26]
		set_rgb.b = round((chroma+m)*999);
 80020f8:	ed97 7a0b 	vldr	s14, [r7, #44]	@ 0x2c
 80020fc:	edd7 7a08 	vldr	s15, [r7, #32]
 8002100:	ee77 7a27 	vadd.f32	s15, s14, s15
 8002104:	ed1f 7a22 	vldr	s14, [pc, #-136]	@ 8002080 <hsv_to_rgb+0x390>
 8002108:	ee67 7a87 	vmul.f32	s15, s15, s14
 800210c:	ee17 0a90 	vmov	r0, s15
 8002110:	f7fe f9be 	bl	8000490 <__aeabi_f2d>
 8002114:	4602      	mov	r2, r0
 8002116:	460b      	mov	r3, r1
 8002118:	ec43 2b10 	vmov	d0, r2, r3
 800211c:	f000 fee8 	bl	8002ef0 <round>
 8002120:	ec53 2b10 	vmov	r2, r3, d0
 8002124:	4610      	mov	r0, r2
 8002126:	4619      	mov	r1, r3
 8002128:	f7fe fcba 	bl	8000aa0 <__aeabi_d2uiz>
 800212c:	4603      	mov	r3, r0
 800212e:	b29b      	uxth	r3, r3
 8002130:	83bb      	strh	r3, [r7, #28]
		break;
 8002132:	e0b7      	b.n	80022a4 <hsv_to_rgb+0x5b4>
	case 4:
		set_rgb.r = round((variable+m)*999);
 8002134:	ed97 7a09 	vldr	s14, [r7, #36]	@ 0x24
 8002138:	edd7 7a08 	vldr	s15, [r7, #32]
 800213c:	ee77 7a27 	vadd.f32	s15, s14, s15
 8002140:	ed1f 7a31 	vldr	s14, [pc, #-196]	@ 8002080 <hsv_to_rgb+0x390>
 8002144:	ee67 7a87 	vmul.f32	s15, s15, s14
 8002148:	ee17 0a90 	vmov	r0, s15
 800214c:	f7fe f9a0 	bl	8000490 <__aeabi_f2d>
 8002150:	4602      	mov	r2, r0
 8002152:	460b      	mov	r3, r1
 8002154:	ec43 2b10 	vmov	d0, r2, r3
 8002158:	f000 feca 	bl	8002ef0 <round>
 800215c:	ec53 2b10 	vmov	r2, r3, d0
 8002160:	4610      	mov	r0, r2
 8002162:	4619      	mov	r1, r3
 8002164:	f7fe fc9c 	bl	8000aa0 <__aeabi_d2uiz>
 8002168:	4603      	mov	r3, r0
 800216a:	b29b      	uxth	r3, r3
 800216c:	833b      	strh	r3, [r7, #24]
		set_rgb.g = round((0+m)*999);
 800216e:	edd7 7a08 	vldr	s15, [r7, #32]
 8002172:	ed1f 7a3e 	vldr	s14, [pc, #-248]	@ 800207c <hsv_to_rgb+0x38c>
 8002176:	ee77 7a87 	vadd.f32	s15, s15, s14
 800217a:	ed1f 7a3f 	vldr	s14, [pc, #-252]	@ 8002080 <hsv_to_rgb+0x390>
 800217e:	ee67 7a87 	vmul.f32	s15, s15, s14
 8002182:	ee17 0a90 	vmov	r0, s15
 8002186:	f7fe f983 	bl	8000490 <__aeabi_f2d>
 800218a:	4602      	mov	r2, r0
 800218c:	460b      	mov	r3, r1
 800218e:	ec43 2b10 	vmov	d0, r2, r3
 8002192:	f000 fead 	bl	8002ef0 <round>
 8002196:	ec53 2b10 	vmov	r2, r3, d0
 800219a:	4610      	mov	r0, r2
 800219c:	4619      	mov	r1, r3
 800219e:	f7fe fc7f 	bl	8000aa0 <__aeabi_d2uiz>
 80021a2:	4603      	mov	r3, r0
 80021a4:	b29b      	uxth	r3, r3
 80021a6:	837b      	strh	r3, [r7, #26]
		set_rgb.b = round((chroma+m)*999);
 80021a8:	ed97 7a0b 	vldr	s14, [r7, #44]	@ 0x2c
 80021ac:	edd7 7a08 	vldr	s15, [r7, #32]
 80021b0:	ee77 7a27 	vadd.f32	s15, s14, s15
 80021b4:	ed1f 7a4e 	vldr	s14, [pc, #-312]	@ 8002080 <hsv_to_rgb+0x390>
 80021b8:	ee67 7a87 	vmul.f32	s15, s15, s14
 80021bc:	ee17 0a90 	vmov	r0, s15
 80021c0:	f7fe f966 	bl	8000490 <__aeabi_f2d>
 80021c4:	4602      	mov	r2, r0
 80021c6:	460b      	mov	r3, r1
 80021c8:	ec43 2b10 	vmov	d0, r2, r3
 80021cc:	f000 fe90 	bl	8002ef0 <round>
 80021d0:	ec53 2b10 	vmov	r2, r3, d0
 80021d4:	4610      	mov	r0, r2
 80021d6:	4619      	mov	r1, r3
 80021d8:	f7fe fc62 	bl	8000aa0 <__aeabi_d2uiz>
 80021dc:	4603      	mov	r3, r0
 80021de:	b29b      	uxth	r3, r3
 80021e0:	83bb      	strh	r3, [r7, #28]
		break;
 80021e2:	e05f      	b.n	80022a4 <hsv_to_rgb+0x5b4>
	case 5:
		set_rgb.r = round((chroma+m)*999);
 80021e4:	ed97 7a0b 	vldr	s14, [r7, #44]	@ 0x2c
 80021e8:	edd7 7a08 	vldr	s15, [r7, #32]
 80021ec:	ee77 7a27 	vadd.f32	s15, s14, s15
 80021f0:	ed1f 7a5d 	vldr	s14, [pc, #-372]	@ 8002080 <hsv_to_rgb+0x390>
 80021f4:	ee67 7a87 	vmul.f32	s15, s15, s14
 80021f8:	ee17 0a90 	vmov	r0, s15
 80021fc:	f7fe f948 	bl	8000490 <__aeabi_f2d>
 8002200:	4602      	mov	r2, r0
 8002202:	460b      	mov	r3, r1
 8002204:	ec43 2b10 	vmov	d0, r2, r3
 8002208:	f000 fe72 	bl	8002ef0 <round>
 800220c:	ec53 2b10 	vmov	r2, r3, d0
 8002210:	4610      	mov	r0, r2
 8002212:	4619      	mov	r1, r3
 8002214:	f7fe fc44 	bl	8000aa0 <__aeabi_d2uiz>
 8002218:	4603      	mov	r3, r0
 800221a:	b29b      	uxth	r3, r3
 800221c:	833b      	strh	r3, [r7, #24]
		set_rgb.g = round((0+m)*999);
 800221e:	edd7 7a08 	vldr	s15, [r7, #32]
 8002222:	ed1f 7a6a 	vldr	s14, [pc, #-424]	@ 800207c <hsv_to_rgb+0x38c>
 8002226:	ee77 7a87 	vadd.f32	s15, s15, s14
 800222a:	ed1f 7a6b 	vldr	s14, [pc, #-428]	@ 8002080 <hsv_to_rgb+0x390>
 800222e:	ee67 7a87 	vmul.f32	s15, s15, s14
 8002232:	ee17 0a90 	vmov	r0, s15
 8002236:	f7fe f92b 	bl	8000490 <__aeabi_f2d>
 800223a:	4602      	mov	r2, r0
 800223c:	460b      	mov	r3, r1
 800223e:	ec43 2b10 	vmov	d0, r2, r3
 8002242:	f000 fe55 	bl	8002ef0 <round>
 8002246:	ec53 2b10 	vmov	r2, r3, d0
 800224a:	4610      	mov	r0, r2
 800224c:	4619      	mov	r1, r3
 800224e:	f7fe fc27 	bl	8000aa0 <__aeabi_d2uiz>
 8002252:	4603      	mov	r3, r0
 8002254:	b29b      	uxth	r3, r3
 8002256:	837b      	strh	r3, [r7, #26]
		set_rgb.b = round((variable+m)*999);
 8002258:	ed97 7a09 	vldr	s14, [r7, #36]	@ 0x24
 800225c:	edd7 7a08 	vldr	s15, [r7, #32]
 8002260:	ee77 7a27 	vadd.f32	s15, s14, s15
 8002264:	ed1f 7a7a 	vldr	s14, [pc, #-488]	@ 8002080 <hsv_to_rgb+0x390>
 8002268:	ee67 7a87 	vmul.f32	s15, s15, s14
 800226c:	ee17 0a90 	vmov	r0, s15
 8002270:	f7fe f90e 	bl	8000490 <__aeabi_f2d>
 8002274:	4602      	mov	r2, r0
 8002276:	460b      	mov	r3, r1
 8002278:	ec43 2b10 	vmov	d0, r2, r3
 800227c:	f000 fe38 	bl	8002ef0 <round>
 8002280:	ec53 2b10 	vmov	r2, r3, d0
 8002284:	4610      	mov	r0, r2
 8002286:	4619      	mov	r1, r3
 8002288:	f7fe fc0a 	bl	8000aa0 <__aeabi_d2uiz>
 800228c:	4603      	mov	r3, r0
 800228e:	b29b      	uxth	r3, r3
 8002290:	83bb      	strh	r3, [r7, #28]
		break;
 8002292:	e007      	b.n	80022a4 <hsv_to_rgb+0x5b4>
	default:
		// signal red as error
		set_rgb.r = 999;
 8002294:	f240 33e7 	movw	r3, #999	@ 0x3e7
 8002298:	833b      	strh	r3, [r7, #24]
		set_rgb.g = 0;
 800229a:	2300      	movs	r3, #0
 800229c:	837b      	strh	r3, [r7, #26]
		set_rgb.b = 0;
 800229e:	2300      	movs	r3, #0
 80022a0:	83bb      	strh	r3, [r7, #28]
		break;
 80022a2:	bf00      	nop
	}

	current.h = hue;
 80022a4:	4a0a      	ldr	r2, [pc, #40]	@ (80022d0 <hsv_to_rgb+0x5e0>)
 80022a6:	693b      	ldr	r3, [r7, #16]
 80022a8:	6013      	str	r3, [r2, #0]
	current.s = saturation;
 80022aa:	4a09      	ldr	r2, [pc, #36]	@ (80022d0 <hsv_to_rgb+0x5e0>)
 80022ac:	68fb      	ldr	r3, [r7, #12]
 80022ae:	6053      	str	r3, [r2, #4]
	current.v = value;
 80022b0:	4a07      	ldr	r2, [pc, #28]	@ (80022d0 <hsv_to_rgb+0x5e0>)
 80022b2:	68bb      	ldr	r3, [r7, #8]
 80022b4:	6093      	str	r3, [r2, #8]

	return set_rgb;
 80022b6:	697b      	ldr	r3, [r7, #20]
 80022b8:	461a      	mov	r2, r3
 80022ba:	f107 0318 	add.w	r3, r7, #24
 80022be:	6818      	ldr	r0, [r3, #0]
 80022c0:	6010      	str	r0, [r2, #0]
 80022c2:	889b      	ldrh	r3, [r3, #4]
 80022c4:	8093      	strh	r3, [r2, #4]

}
 80022c6:	6978      	ldr	r0, [r7, #20]
 80022c8:	3730      	adds	r7, #48	@ 0x30
 80022ca:	46bd      	mov	sp, r7
 80022cc:	e8bd 83b0 	ldmia.w	sp!, {r4, r5, r7, r8, r9, pc}
 80022d0:	2000017c 	.word	0x2000017c

080022d4 <lighting_init>:


// Initialise fade engine
void lighting_init(){
 80022d4:	b580      	push	{r7, lr}
 80022d6:	af00      	add	r7, sp, #0
	// initialise tim4 for 10ms interrupt
	current.h = 0.0f;
 80022d8:	4b07      	ldr	r3, [pc, #28]	@ (80022f8 <lighting_init+0x24>)
 80022da:	f04f 0200 	mov.w	r2, #0
 80022de:	601a      	str	r2, [r3, #0]
	current.s = 0.0f;
 80022e0:	4b05      	ldr	r3, [pc, #20]	@ (80022f8 <lighting_init+0x24>)
 80022e2:	f04f 0200 	mov.w	r2, #0
 80022e6:	605a      	str	r2, [r3, #4]
	current.v = 0.0f;
 80022e8:	4b03      	ldr	r3, [pc, #12]	@ (80022f8 <lighting_init+0x24>)
 80022ea:	f04f 0200 	mov.w	r2, #0
 80022ee:	609a      	str	r2, [r3, #8]
	tim4_init();
 80022f0:	f7ff fa18 	bl	8001724 <tim4_init>
}
 80022f4:	bf00      	nop
 80022f6:	bd80      	pop	{r7, pc}
 80022f8:	2000017c 	.word	0x2000017c

080022fc <lighting_set_color>:


static void lighting_set_color(uint16_t r, uint16_t g, uint16_t b){
 80022fc:	b580      	push	{r7, lr}
 80022fe:	b082      	sub	sp, #8
 8002300:	af00      	add	r7, sp, #0
 8002302:	4603      	mov	r3, r0
 8002304:	80fb      	strh	r3, [r7, #6]
 8002306:	460b      	mov	r3, r1
 8002308:	80bb      	strh	r3, [r7, #4]
 800230a:	4613      	mov	r3, r2
 800230c:	807b      	strh	r3, [r7, #2]
	led_set_color(r,g,b);
 800230e:	887a      	ldrh	r2, [r7, #2]
 8002310:	88b9      	ldrh	r1, [r7, #4]
 8002312:	88fb      	ldrh	r3, [r7, #6]
 8002314:	4618      	mov	r0, r3
 8002316:	f7ff fb93 	bl	8001a40 <led_set_color>
}
 800231a:	bf00      	nop
 800231c:	3708      	adds	r7, #8
 800231e:	46bd      	mov	sp, r7
 8002320:	bd80      	pop	{r7, pc}
	...

08002324 <static_rgb_fade_update>:


// called by timer(periodic update)
void static_rgb_fade_update(void){
 8002324:	b590      	push	{r4, r7, lr}
 8002326:	b087      	sub	sp, #28
 8002328:	af00      	add	r7, sp, #0
	if(is_active == false){
 800232a:	4b30      	ldr	r3, [pc, #192]	@ (80023ec <static_rgb_fade_update+0xc8>)
 800232c:	781b      	ldrb	r3, [r3, #0]
 800232e:	f083 0301 	eor.w	r3, r3, #1
 8002332:	b2db      	uxtb	r3, r3
 8002334:	2b00      	cmp	r3, #0
 8002336:	d155      	bne.n	80023e4 <static_rgb_fade_update+0xc0>
		return;
	}

	float set_h = current.h + steps_h;
 8002338:	4b2d      	ldr	r3, [pc, #180]	@ (80023f0 <static_rgb_fade_update+0xcc>)
 800233a:	ed93 7a00 	vldr	s14, [r3]
 800233e:	4b2d      	ldr	r3, [pc, #180]	@ (80023f4 <static_rgb_fade_update+0xd0>)
 8002340:	edd3 7a00 	vldr	s15, [r3]
 8002344:	ee77 7a27 	vadd.f32	s15, s14, s15
 8002348:	edc7 7a05 	vstr	s15, [r7, #20]
	float set_s = current.s + steps_s;
 800234c:	4b28      	ldr	r3, [pc, #160]	@ (80023f0 <static_rgb_fade_update+0xcc>)
 800234e:	ed93 7a01 	vldr	s14, [r3, #4]
 8002352:	4b29      	ldr	r3, [pc, #164]	@ (80023f8 <static_rgb_fade_update+0xd4>)
 8002354:	edd3 7a00 	vldr	s15, [r3]
 8002358:	ee77 7a27 	vadd.f32	s15, s14, s15
 800235c:	edc7 7a04 	vstr	s15, [r7, #16]
	float set_v = current.v + steps_v;
 8002360:	4b23      	ldr	r3, [pc, #140]	@ (80023f0 <static_rgb_fade_update+0xcc>)
 8002362:	ed93 7a02 	vldr	s14, [r3, #8]
 8002366:	4b25      	ldr	r3, [pc, #148]	@ (80023fc <static_rgb_fade_update+0xd8>)
 8002368:	edd3 7a00 	vldr	s15, [r3]
 800236c:	ee77 7a27 	vadd.f32	s15, s14, s15
 8002370:	edc7 7a03 	vstr	s15, [r7, #12]

	steps_remaining -= 1;
 8002374:	4b22      	ldr	r3, [pc, #136]	@ (8002400 <static_rgb_fade_update+0xdc>)
 8002376:	881b      	ldrh	r3, [r3, #0]
 8002378:	3b01      	subs	r3, #1
 800237a:	b29a      	uxth	r2, r3
 800237c:	4b20      	ldr	r3, [pc, #128]	@ (8002400 <static_rgb_fade_update+0xdc>)
 800237e:	801a      	strh	r2, [r3, #0]
	if(steps_remaining == 0){
 8002380:	4b1f      	ldr	r3, [pc, #124]	@ (8002400 <static_rgb_fade_update+0xdc>)
 8002382:	881b      	ldrh	r3, [r3, #0]
 8002384:	2b00      	cmp	r3, #0
 8002386:	d10d      	bne.n	80023a4 <static_rgb_fade_update+0x80>
		set_h  = to_h;
 8002388:	4b1e      	ldr	r3, [pc, #120]	@ (8002404 <static_rgb_fade_update+0xe0>)
 800238a:	681b      	ldr	r3, [r3, #0]
 800238c:	617b      	str	r3, [r7, #20]
		set_s  = to_s;
 800238e:	4b1e      	ldr	r3, [pc, #120]	@ (8002408 <static_rgb_fade_update+0xe4>)
 8002390:	681b      	ldr	r3, [r3, #0]
 8002392:	613b      	str	r3, [r7, #16]
		set_v  = to_v;
 8002394:	4b1d      	ldr	r3, [pc, #116]	@ (800240c <static_rgb_fade_update+0xe8>)
 8002396:	681b      	ldr	r3, [r3, #0]
 8002398:	60fb      	str	r3, [r7, #12]

		is_active = false;
 800239a:	4b14      	ldr	r3, [pc, #80]	@ (80023ec <static_rgb_fade_update+0xc8>)
 800239c:	2200      	movs	r2, #0
 800239e:	701a      	strb	r2, [r3, #0]
		tim4_stop();
 80023a0:	f7ff fa18 	bl	80017d4 <tim4_stop>
	}
	to_rgb = hsv_to_rgb(set_h, set_s, set_v);
 80023a4:	4c1a      	ldr	r4, [pc, #104]	@ (8002410 <static_rgb_fade_update+0xec>)
 80023a6:	463b      	mov	r3, r7
 80023a8:	ed97 1a03 	vldr	s2, [r7, #12]
 80023ac:	edd7 0a04 	vldr	s1, [r7, #16]
 80023b0:	ed97 0a05 	vldr	s0, [r7, #20]
 80023b4:	4618      	mov	r0, r3
 80023b6:	f7ff fc9b 	bl	8001cf0 <hsv_to_rgb>
 80023ba:	4622      	mov	r2, r4
 80023bc:	463b      	mov	r3, r7
 80023be:	6818      	ldr	r0, [r3, #0]
 80023c0:	6010      	str	r0, [r2, #0]
 80023c2:	889b      	ldrh	r3, [r3, #4]
 80023c4:	8093      	strh	r3, [r2, #4]
	lighting_set_color(to_rgb.r, to_rgb.g, to_rgb.b);
 80023c6:	4b12      	ldr	r3, [pc, #72]	@ (8002410 <static_rgb_fade_update+0xec>)
 80023c8:	881b      	ldrh	r3, [r3, #0]
 80023ca:	b29b      	uxth	r3, r3
 80023cc:	4a10      	ldr	r2, [pc, #64]	@ (8002410 <static_rgb_fade_update+0xec>)
 80023ce:	8852      	ldrh	r2, [r2, #2]
 80023d0:	b291      	uxth	r1, r2
 80023d2:	4a0f      	ldr	r2, [pc, #60]	@ (8002410 <static_rgb_fade_update+0xec>)
 80023d4:	8892      	ldrh	r2, [r2, #4]
 80023d6:	b292      	uxth	r2, r2
 80023d8:	4618      	mov	r0, r3
 80023da:	f7ff ff8f 	bl	80022fc <lighting_set_color>
	led_update();
 80023de:	f7ff fb4d 	bl	8001a7c <led_update>
 80023e2:	e000      	b.n	80023e6 <static_rgb_fade_update+0xc2>
		return;
 80023e4:	bf00      	nop

}
 80023e6:	371c      	adds	r7, #28
 80023e8:	46bd      	mov	sp, r7
 80023ea:	bd90      	pop	{r4, r7, pc}
 80023ec:	200001d8 	.word	0x200001d8
 80023f0:	2000017c 	.word	0x2000017c
 80023f4:	20000194 	.word	0x20000194
 80023f8:	20000198 	.word	0x20000198
 80023fc:	2000019c 	.word	0x2000019c
 8002400:	200001a0 	.word	0x200001a0
 8002404:	20000188 	.word	0x20000188
 8002408:	2000018c 	.word	0x2000018c
 800240c:	20000190 	.word	0x20000190
 8002410:	20000174 	.word	0x20000174
 8002414:	00000000 	.word	0x00000000

08002418 <lighting_set_rgb>:
void lighting_set_rgb(uint16_t h, uint8_t s, uint8_t v, uint16_t fade_time){
 8002418:	b590      	push	{r4, r7, lr}
 800241a:	b085      	sub	sp, #20
 800241c:	af00      	add	r7, sp, #0
 800241e:	4604      	mov	r4, r0
 8002420:	4608      	mov	r0, r1
 8002422:	4611      	mov	r1, r2
 8002424:	461a      	mov	r2, r3
 8002426:	4623      	mov	r3, r4
 8002428:	80fb      	strh	r3, [r7, #6]
 800242a:	4603      	mov	r3, r0
 800242c:	717b      	strb	r3, [r7, #5]
 800242e:	460b      	mov	r3, r1
 8002430:	713b      	strb	r3, [r7, #4]
 8002432:	4613      	mov	r3, r2
 8002434:	807b      	strh	r3, [r7, #2]
	to_h = (float)h;				//uint16_t
 8002436:	88fb      	ldrh	r3, [r7, #6]
 8002438:	ee07 3a90 	vmov	s15, r3
 800243c:	eef8 7a67 	vcvt.f32.u32	s15, s15
 8002440:	4b4f      	ldr	r3, [pc, #316]	@ (8002580 <lighting_set_rgb+0x168>)
 8002442:	edc3 7a00 	vstr	s15, [r3]
	to_s = s/255.0f;		// float
 8002446:	797b      	ldrb	r3, [r7, #5]
 8002448:	ee07 3a90 	vmov	s15, r3
 800244c:	eeb8 7ae7 	vcvt.f32.s32	s14, s15
 8002450:	eddf 6a4c 	vldr	s13, [pc, #304]	@ 8002584 <lighting_set_rgb+0x16c>
 8002454:	eec7 7a26 	vdiv.f32	s15, s14, s13
 8002458:	4b4b      	ldr	r3, [pc, #300]	@ (8002588 <lighting_set_rgb+0x170>)
 800245a:	edc3 7a00 	vstr	s15, [r3]
	to_v = v/255.0f;		// float
 800245e:	793b      	ldrb	r3, [r7, #4]
 8002460:	ee07 3a90 	vmov	s15, r3
 8002464:	eeb8 7ae7 	vcvt.f32.s32	s14, s15
 8002468:	eddf 6a46 	vldr	s13, [pc, #280]	@ 8002584 <lighting_set_rgb+0x16c>
 800246c:	eec7 7a26 	vdiv.f32	s15, s14, s13
 8002470:	4b46      	ldr	r3, [pc, #280]	@ (800258c <lighting_set_rgb+0x174>)
 8002472:	edc3 7a00 	vstr	s15, [r3]

	uint16_t steps_total = fade_time/period_ms;
 8002476:	4b46      	ldr	r3, [pc, #280]	@ (8002590 <lighting_set_rgb+0x178>)
 8002478:	881b      	ldrh	r3, [r3, #0]
 800247a:	887a      	ldrh	r2, [r7, #2]
 800247c:	fbb2 f3f3 	udiv	r3, r2, r3
 8002480:	817b      	strh	r3, [r7, #10]

	float diff_h = fmod((to_h - current.h), 360.0f);
 8002482:	4b3f      	ldr	r3, [pc, #252]	@ (8002580 <lighting_set_rgb+0x168>)
 8002484:	ed93 7a00 	vldr	s14, [r3]
 8002488:	4b42      	ldr	r3, [pc, #264]	@ (8002594 <lighting_set_rgb+0x17c>)
 800248a:	edd3 7a00 	vldr	s15, [r3]
 800248e:	ee77 7a67 	vsub.f32	s15, s14, s15
 8002492:	ee17 0a90 	vmov	r0, s15
 8002496:	f7fd fffb 	bl	8000490 <__aeabi_f2d>
 800249a:	4602      	mov	r2, r0
 800249c:	460b      	mov	r3, r1
 800249e:	ed9f 1b36 	vldr	d1, [pc, #216]	@ 8002578 <lighting_set_rgb+0x160>
 80024a2:	ec43 2b10 	vmov	d0, r2, r3
 80024a6:	f000 fbed 	bl	8002c84 <fmod>
 80024aa:	ec53 2b10 	vmov	r2, r3, d0
 80024ae:	4610      	mov	r0, r2
 80024b0:	4619      	mov	r1, r3
 80024b2:	f7fe fb15 	bl	8000ae0 <__aeabi_d2f>
 80024b6:	4603      	mov	r3, r0
 80024b8:	60fb      	str	r3, [r7, #12]
	if(diff_h > 180.0f) diff_h -=360.0f;
 80024ba:	edd7 7a03 	vldr	s15, [r7, #12]
 80024be:	ed9f 7a36 	vldr	s14, [pc, #216]	@ 8002598 <lighting_set_rgb+0x180>
 80024c2:	eef4 7ac7 	vcmpe.f32	s15, s14
 80024c6:	eef1 fa10 	vmrs	APSR_nzcv, fpscr
 80024ca:	dd07      	ble.n	80024dc <lighting_set_rgb+0xc4>
 80024cc:	edd7 7a03 	vldr	s15, [r7, #12]
 80024d0:	ed9f 7a32 	vldr	s14, [pc, #200]	@ 800259c <lighting_set_rgb+0x184>
 80024d4:	ee77 7ac7 	vsub.f32	s15, s15, s14
 80024d8:	edc7 7a03 	vstr	s15, [r7, #12]
	if(diff_h < -180.0f) diff_h +=360.0f;
 80024dc:	edd7 7a03 	vldr	s15, [r7, #12]
 80024e0:	ed9f 7a2f 	vldr	s14, [pc, #188]	@ 80025a0 <lighting_set_rgb+0x188>
 80024e4:	eef4 7ac7 	vcmpe.f32	s15, s14
 80024e8:	eef1 fa10 	vmrs	APSR_nzcv, fpscr
 80024ec:	d507      	bpl.n	80024fe <lighting_set_rgb+0xe6>
 80024ee:	edd7 7a03 	vldr	s15, [r7, #12]
 80024f2:	ed9f 7a2a 	vldr	s14, [pc, #168]	@ 800259c <lighting_set_rgb+0x184>
 80024f6:	ee77 7a87 	vadd.f32	s15, s15, s14
 80024fa:	edc7 7a03 	vstr	s15, [r7, #12]
	steps_h = diff_h/steps_total;
 80024fe:	897b      	ldrh	r3, [r7, #10]
 8002500:	ee07 3a90 	vmov	s15, r3
 8002504:	eeb8 7ae7 	vcvt.f32.s32	s14, s15
 8002508:	edd7 6a03 	vldr	s13, [r7, #12]
 800250c:	eec6 7a87 	vdiv.f32	s15, s13, s14
 8002510:	4b24      	ldr	r3, [pc, #144]	@ (80025a4 <lighting_set_rgb+0x18c>)
 8002512:	edc3 7a00 	vstr	s15, [r3]
	steps_s = (to_s - current.s)/steps_total;
 8002516:	4b1c      	ldr	r3, [pc, #112]	@ (8002588 <lighting_set_rgb+0x170>)
 8002518:	ed93 7a00 	vldr	s14, [r3]
 800251c:	4b1d      	ldr	r3, [pc, #116]	@ (8002594 <lighting_set_rgb+0x17c>)
 800251e:	edd3 7a01 	vldr	s15, [r3, #4]
 8002522:	ee77 6a67 	vsub.f32	s13, s14, s15
 8002526:	897b      	ldrh	r3, [r7, #10]
 8002528:	ee07 3a90 	vmov	s15, r3
 800252c:	eeb8 7ae7 	vcvt.f32.s32	s14, s15
 8002530:	eec6 7a87 	vdiv.f32	s15, s13, s14
 8002534:	4b1c      	ldr	r3, [pc, #112]	@ (80025a8 <lighting_set_rgb+0x190>)
 8002536:	edc3 7a00 	vstr	s15, [r3]
	steps_v = (to_v - current.v)/steps_total;
 800253a:	4b14      	ldr	r3, [pc, #80]	@ (800258c <lighting_set_rgb+0x174>)
 800253c:	ed93 7a00 	vldr	s14, [r3]
 8002540:	4b14      	ldr	r3, [pc, #80]	@ (8002594 <lighting_set_rgb+0x17c>)
 8002542:	edd3 7a02 	vldr	s15, [r3, #8]
 8002546:	ee77 6a67 	vsub.f32	s13, s14, s15
 800254a:	897b      	ldrh	r3, [r7, #10]
 800254c:	ee07 3a90 	vmov	s15, r3
 8002550:	eeb8 7ae7 	vcvt.f32.s32	s14, s15
 8002554:	eec6 7a87 	vdiv.f32	s15, s13, s14
 8002558:	4b14      	ldr	r3, [pc, #80]	@ (80025ac <lighting_set_rgb+0x194>)
 800255a:	edc3 7a00 	vstr	s15, [r3]
	steps_remaining = steps_total;
 800255e:	4a14      	ldr	r2, [pc, #80]	@ (80025b0 <lighting_set_rgb+0x198>)
 8002560:	897b      	ldrh	r3, [r7, #10]
 8002562:	8013      	strh	r3, [r2, #0]

	is_active = true;
 8002564:	4b13      	ldr	r3, [pc, #76]	@ (80025b4 <lighting_set_rgb+0x19c>)
 8002566:	2201      	movs	r2, #1
 8002568:	701a      	strb	r2, [r3, #0]
	tim4_start();
 800256a:	f7ff f923 	bl	80017b4 <tim4_start>

}
 800256e:	bf00      	nop
 8002570:	3714      	adds	r7, #20
 8002572:	46bd      	mov	sp, r7
 8002574:	bd90      	pop	{r4, r7, pc}
 8002576:	bf00      	nop
 8002578:	00000000 	.word	0x00000000
 800257c:	40768000 	.word	0x40768000
 8002580:	20000188 	.word	0x20000188
 8002584:	437f0000 	.word	0x437f0000
 8002588:	2000018c 	.word	0x2000018c
 800258c:	20000190 	.word	0x20000190
 8002590:	20000002 	.word	0x20000002
 8002594:	2000017c 	.word	0x2000017c
 8002598:	43340000 	.word	0x43340000
 800259c:	43b40000 	.word	0x43b40000
 80025a0:	c3340000 	.word	0xc3340000
 80025a4:	20000194 	.word	0x20000194
 80025a8:	20000198 	.word	0x20000198
 80025ac:	2000019c 	.word	0x2000019c
 80025b0:	200001a0 	.word	0x200001a0
 80025b4:	200001d8 	.word	0x200001d8

080025b8 <rainbow_fade_update>:



// called by timer(periodic update)
void rainbow_fade_update(void){
 80025b8:	b590      	push	{r4, r7, lr}
 80025ba:	b085      	sub	sp, #20
 80025bc:	af00      	add	r7, sp, #0
	if(is_active == false){
 80025be:	4b26      	ldr	r3, [pc, #152]	@ (8002658 <rainbow_fade_update+0xa0>)
 80025c0:	781b      	ldrb	r3, [r3, #0]
 80025c2:	f083 0301 	eor.w	r3, r3, #1
 80025c6:	b2db      	uxtb	r3, r3
 80025c8:	2b00      	cmp	r3, #0
 80025ca:	d13b      	bne.n	8002644 <rainbow_fade_update+0x8c>
		return;
	}
	float set_h = current.h + 1.0f;
 80025cc:	4b23      	ldr	r3, [pc, #140]	@ (800265c <rainbow_fade_update+0xa4>)
 80025ce:	edd3 7a00 	vldr	s15, [r3]
 80025d2:	eeb7 7a00 	vmov.f32	s14, #112	@ 0x3f800000  1.0
 80025d6:	ee77 7a87 	vadd.f32	s15, s15, s14
 80025da:	edc7 7a03 	vstr	s15, [r7, #12]
	set_h = fmod(set_h, 360.0f);
 80025de:	68f8      	ldr	r0, [r7, #12]
 80025e0:	f7fd ff56 	bl	8000490 <__aeabi_f2d>
 80025e4:	4602      	mov	r2, r0
 80025e6:	460b      	mov	r3, r1
 80025e8:	ed9f 1b19 	vldr	d1, [pc, #100]	@ 8002650 <rainbow_fade_update+0x98>
 80025ec:	ec43 2b10 	vmov	d0, r2, r3
 80025f0:	f000 fb48 	bl	8002c84 <fmod>
 80025f4:	ec53 2b10 	vmov	r2, r3, d0
 80025f8:	4610      	mov	r0, r2
 80025fa:	4619      	mov	r1, r3
 80025fc:	f7fe fa70 	bl	8000ae0 <__aeabi_d2f>
 8002600:	4603      	mov	r3, r0
 8002602:	60fb      	str	r3, [r7, #12]

	to_rgb = hsv_to_rgb(set_h, 1.0f, 1.0f);
 8002604:	4c16      	ldr	r4, [pc, #88]	@ (8002660 <rainbow_fade_update+0xa8>)
 8002606:	463b      	mov	r3, r7
 8002608:	eeb7 1a00 	vmov.f32	s2, #112	@ 0x3f800000  1.0
 800260c:	eef7 0a00 	vmov.f32	s1, #112	@ 0x3f800000  1.0
 8002610:	ed97 0a03 	vldr	s0, [r7, #12]
 8002614:	4618      	mov	r0, r3
 8002616:	f7ff fb6b 	bl	8001cf0 <hsv_to_rgb>
 800261a:	4622      	mov	r2, r4
 800261c:	463b      	mov	r3, r7
 800261e:	6818      	ldr	r0, [r3, #0]
 8002620:	6010      	str	r0, [r2, #0]
 8002622:	889b      	ldrh	r3, [r3, #4]
 8002624:	8093      	strh	r3, [r2, #4]
	lighting_set_color(to_rgb.r, to_rgb.g, to_rgb.b);
 8002626:	4b0e      	ldr	r3, [pc, #56]	@ (8002660 <rainbow_fade_update+0xa8>)
 8002628:	881b      	ldrh	r3, [r3, #0]
 800262a:	b29b      	uxth	r3, r3
 800262c:	4a0c      	ldr	r2, [pc, #48]	@ (8002660 <rainbow_fade_update+0xa8>)
 800262e:	8852      	ldrh	r2, [r2, #2]
 8002630:	b291      	uxth	r1, r2
 8002632:	4a0b      	ldr	r2, [pc, #44]	@ (8002660 <rainbow_fade_update+0xa8>)
 8002634:	8892      	ldrh	r2, [r2, #4]
 8002636:	b292      	uxth	r2, r2
 8002638:	4618      	mov	r0, r3
 800263a:	f7ff fe5f 	bl	80022fc <lighting_set_color>
	led_update();
 800263e:	f7ff fa1d 	bl	8001a7c <led_update>
 8002642:	e000      	b.n	8002646 <rainbow_fade_update+0x8e>
		return;
 8002644:	bf00      	nop
}
 8002646:	3714      	adds	r7, #20
 8002648:	46bd      	mov	sp, r7
 800264a:	bd90      	pop	{r4, r7, pc}
 800264c:	f3af 8000 	nop.w
 8002650:	00000000 	.word	0x00000000
 8002654:	40768000 	.word	0x40768000
 8002658:	200001d8 	.word	0x200001d8
 800265c:	2000017c 	.word	0x2000017c
 8002660:	20000174 	.word	0x20000174

08002664 <lighting_start_rainbow>:


void lighting_start_rainbow(){
 8002664:	b580      	push	{r7, lr}
 8002666:	af00      	add	r7, sp, #0
	current.h = 0.0f;
 8002668:	4b09      	ldr	r3, [pc, #36]	@ (8002690 <lighting_start_rainbow+0x2c>)
 800266a:	f04f 0200 	mov.w	r2, #0
 800266e:	601a      	str	r2, [r3, #0]
	current.s = 1.0f;
 8002670:	4b07      	ldr	r3, [pc, #28]	@ (8002690 <lighting_start_rainbow+0x2c>)
 8002672:	f04f 527e 	mov.w	r2, #1065353216	@ 0x3f800000
 8002676:	605a      	str	r2, [r3, #4]
	current.v = 1.0f;
 8002678:	4b05      	ldr	r3, [pc, #20]	@ (8002690 <lighting_start_rainbow+0x2c>)
 800267a:	f04f 527e 	mov.w	r2, #1065353216	@ 0x3f800000
 800267e:	609a      	str	r2, [r3, #8]
	is_active = true;
 8002680:	4b04      	ldr	r3, [pc, #16]	@ (8002694 <lighting_start_rainbow+0x30>)
 8002682:	2201      	movs	r2, #1
 8002684:	701a      	strb	r2, [r3, #0]
	tim4_start();
 8002686:	f7ff f895 	bl	80017b4 <tim4_start>

}
 800268a:	bf00      	nop
 800268c:	bd80      	pop	{r7, pc}
 800268e:	bf00      	nop
 8002690:	2000017c 	.word	0x2000017c
 8002694:	200001d8 	.word	0x200001d8

08002698 <color_loop_fade_update>:

// called by timer(periodic update)
void color_loop_fade_update(void){
 8002698:	b590      	push	{r4, r7, lr}
 800269a:	b089      	sub	sp, #36	@ 0x24
 800269c:	af00      	add	r7, sp, #0
	if(is_active == false){
 800269e:	4b92      	ldr	r3, [pc, #584]	@ (80028e8 <color_loop_fade_update+0x250>)
 80026a0:	781b      	ldrb	r3, [r3, #0]
 80026a2:	f083 0301 	eor.w	r3, r3, #1
 80026a6:	b2db      	uxtb	r3, r3
 80026a8:	2b00      	cmp	r3, #0
 80026aa:	f040 8115 	bne.w	80028d8 <color_loop_fade_update+0x240>
		return;
	}

	static int8_t from = -1;
	static uint8_t to = 0;
	to = to%(static_color_count);
 80026ae:	4b8f      	ldr	r3, [pc, #572]	@ (80028ec <color_loop_fade_update+0x254>)
 80026b0:	781b      	ldrb	r3, [r3, #0]
 80026b2:	4a8f      	ldr	r2, [pc, #572]	@ (80028f0 <color_loop_fade_update+0x258>)
 80026b4:	7812      	ldrb	r2, [r2, #0]
 80026b6:	fbb3 f1f2 	udiv	r1, r3, r2
 80026ba:	fb01 f202 	mul.w	r2, r1, r2
 80026be:	1a9b      	subs	r3, r3, r2
 80026c0:	b2da      	uxtb	r2, r3
 80026c2:	4b8a      	ldr	r3, [pc, #552]	@ (80028ec <color_loop_fade_update+0x254>)
 80026c4:	701a      	strb	r2, [r3, #0]
	static bool color_transition_done = false;


	if(color_transition_done == true){
 80026c6:	4b8b      	ldr	r3, [pc, #556]	@ (80028f4 <color_loop_fade_update+0x25c>)
 80026c8:	781b      	ldrb	r3, [r3, #0]
 80026ca:	2b00      	cmp	r3, #0
 80026cc:	f000 80b0 	beq.w	8002830 <color_loop_fade_update+0x198>
		from++;
 80026d0:	4b89      	ldr	r3, [pc, #548]	@ (80028f8 <color_loop_fade_update+0x260>)
 80026d2:	f993 3000 	ldrsb.w	r3, [r3]
 80026d6:	b2db      	uxtb	r3, r3
 80026d8:	3301      	adds	r3, #1
 80026da:	b2db      	uxtb	r3, r3
 80026dc:	b25a      	sxtb	r2, r3
 80026de:	4b86      	ldr	r3, [pc, #536]	@ (80028f8 <color_loop_fade_update+0x260>)
 80026e0:	701a      	strb	r2, [r3, #0]
		to++;
 80026e2:	4b82      	ldr	r3, [pc, #520]	@ (80028ec <color_loop_fade_update+0x254>)
 80026e4:	781b      	ldrb	r3, [r3, #0]
 80026e6:	3301      	adds	r3, #1
 80026e8:	b2da      	uxtb	r2, r3
 80026ea:	4b80      	ldr	r3, [pc, #512]	@ (80028ec <color_loop_fade_update+0x254>)
 80026ec:	701a      	strb	r2, [r3, #0]
		to_h = static_color_arr[0 + to*3];
 80026ee:	4b7f      	ldr	r3, [pc, #508]	@ (80028ec <color_loop_fade_update+0x254>)
 80026f0:	781b      	ldrb	r3, [r3, #0]
 80026f2:	461a      	mov	r2, r3
 80026f4:	4613      	mov	r3, r2
 80026f6:	005b      	lsls	r3, r3, #1
 80026f8:	4413      	add	r3, r2
 80026fa:	4a80      	ldr	r2, [pc, #512]	@ (80028fc <color_loop_fade_update+0x264>)
 80026fc:	009b      	lsls	r3, r3, #2
 80026fe:	4413      	add	r3, r2
 8002700:	681b      	ldr	r3, [r3, #0]
 8002702:	4a7f      	ldr	r2, [pc, #508]	@ (8002900 <color_loop_fade_update+0x268>)
 8002704:	6013      	str	r3, [r2, #0]
		to_s = static_color_arr[1 + to*3];
 8002706:	4b79      	ldr	r3, [pc, #484]	@ (80028ec <color_loop_fade_update+0x254>)
 8002708:	781b      	ldrb	r3, [r3, #0]
 800270a:	461a      	mov	r2, r3
 800270c:	4613      	mov	r3, r2
 800270e:	005b      	lsls	r3, r3, #1
 8002710:	4413      	add	r3, r2
 8002712:	3301      	adds	r3, #1
 8002714:	4a79      	ldr	r2, [pc, #484]	@ (80028fc <color_loop_fade_update+0x264>)
 8002716:	009b      	lsls	r3, r3, #2
 8002718:	4413      	add	r3, r2
 800271a:	681b      	ldr	r3, [r3, #0]
 800271c:	4a79      	ldr	r2, [pc, #484]	@ (8002904 <color_loop_fade_update+0x26c>)
 800271e:	6013      	str	r3, [r2, #0]
		to_v = static_color_arr[2 + to*3];
 8002720:	4b72      	ldr	r3, [pc, #456]	@ (80028ec <color_loop_fade_update+0x254>)
 8002722:	781b      	ldrb	r3, [r3, #0]
 8002724:	461a      	mov	r2, r3
 8002726:	4613      	mov	r3, r2
 8002728:	005b      	lsls	r3, r3, #1
 800272a:	4413      	add	r3, r2
 800272c:	3302      	adds	r3, #2
 800272e:	4a73      	ldr	r2, [pc, #460]	@ (80028fc <color_loop_fade_update+0x264>)
 8002730:	009b      	lsls	r3, r3, #2
 8002732:	4413      	add	r3, r2
 8002734:	681b      	ldr	r3, [r3, #0]
 8002736:	4a74      	ldr	r2, [pc, #464]	@ (8002908 <color_loop_fade_update+0x270>)
 8002738:	6013      	str	r3, [r2, #0]

		uint16_t steps_total = static_fade_time/period_ms;
 800273a:	4b74      	ldr	r3, [pc, #464]	@ (800290c <color_loop_fade_update+0x274>)
 800273c:	881a      	ldrh	r2, [r3, #0]
 800273e:	4b74      	ldr	r3, [pc, #464]	@ (8002910 <color_loop_fade_update+0x278>)
 8002740:	881b      	ldrh	r3, [r3, #0]
 8002742:	fbb2 f3f3 	udiv	r3, r2, r3
 8002746:	81fb      	strh	r3, [r7, #14]

		float diff_h = fmod((to_h - current.h), 360.0f);
 8002748:	4b6d      	ldr	r3, [pc, #436]	@ (8002900 <color_loop_fade_update+0x268>)
 800274a:	ed93 7a00 	vldr	s14, [r3]
 800274e:	4b71      	ldr	r3, [pc, #452]	@ (8002914 <color_loop_fade_update+0x27c>)
 8002750:	edd3 7a00 	vldr	s15, [r3]
 8002754:	ee77 7a67 	vsub.f32	s15, s14, s15
 8002758:	ee17 0a90 	vmov	r0, s15
 800275c:	f7fd fe98 	bl	8000490 <__aeabi_f2d>
 8002760:	4602      	mov	r2, r0
 8002762:	460b      	mov	r3, r1
 8002764:	ed9f 1b5e 	vldr	d1, [pc, #376]	@ 80028e0 <color_loop_fade_update+0x248>
 8002768:	ec43 2b10 	vmov	d0, r2, r3
 800276c:	f000 fa8a 	bl	8002c84 <fmod>
 8002770:	ec53 2b10 	vmov	r2, r3, d0
 8002774:	4610      	mov	r0, r2
 8002776:	4619      	mov	r1, r3
 8002778:	f7fe f9b2 	bl	8000ae0 <__aeabi_d2f>
 800277c:	4603      	mov	r3, r0
 800277e:	61fb      	str	r3, [r7, #28]
		if(diff_h > 180.0f) diff_h -=360.0f;
 8002780:	edd7 7a07 	vldr	s15, [r7, #28]
 8002784:	ed9f 7a64 	vldr	s14, [pc, #400]	@ 8002918 <color_loop_fade_update+0x280>
 8002788:	eef4 7ac7 	vcmpe.f32	s15, s14
 800278c:	eef1 fa10 	vmrs	APSR_nzcv, fpscr
 8002790:	dd07      	ble.n	80027a2 <color_loop_fade_update+0x10a>
 8002792:	edd7 7a07 	vldr	s15, [r7, #28]
 8002796:	ed9f 7a61 	vldr	s14, [pc, #388]	@ 800291c <color_loop_fade_update+0x284>
 800279a:	ee77 7ac7 	vsub.f32	s15, s15, s14
 800279e:	edc7 7a07 	vstr	s15, [r7, #28]
		if(diff_h < -180.0f) diff_h +=360.0f;
 80027a2:	edd7 7a07 	vldr	s15, [r7, #28]
 80027a6:	ed9f 7a5e 	vldr	s14, [pc, #376]	@ 8002920 <color_loop_fade_update+0x288>
 80027aa:	eef4 7ac7 	vcmpe.f32	s15, s14
 80027ae:	eef1 fa10 	vmrs	APSR_nzcv, fpscr
 80027b2:	d507      	bpl.n	80027c4 <color_loop_fade_update+0x12c>
 80027b4:	edd7 7a07 	vldr	s15, [r7, #28]
 80027b8:	ed9f 7a58 	vldr	s14, [pc, #352]	@ 800291c <color_loop_fade_update+0x284>
 80027bc:	ee77 7a87 	vadd.f32	s15, s15, s14
 80027c0:	edc7 7a07 	vstr	s15, [r7, #28]
		steps_h = diff_h/steps_total;
 80027c4:	89fb      	ldrh	r3, [r7, #14]
 80027c6:	ee07 3a90 	vmov	s15, r3
 80027ca:	eeb8 7ae7 	vcvt.f32.s32	s14, s15
 80027ce:	edd7 6a07 	vldr	s13, [r7, #28]
 80027d2:	eec6 7a87 	vdiv.f32	s15, s13, s14
 80027d6:	4b53      	ldr	r3, [pc, #332]	@ (8002924 <color_loop_fade_update+0x28c>)
 80027d8:	edc3 7a00 	vstr	s15, [r3]
		steps_s = (to_s - current.s)/steps_total;
 80027dc:	4b49      	ldr	r3, [pc, #292]	@ (8002904 <color_loop_fade_update+0x26c>)
 80027de:	ed93 7a00 	vldr	s14, [r3]
 80027e2:	4b4c      	ldr	r3, [pc, #304]	@ (8002914 <color_loop_fade_update+0x27c>)
 80027e4:	edd3 7a01 	vldr	s15, [r3, #4]
 80027e8:	ee77 6a67 	vsub.f32	s13, s14, s15
 80027ec:	89fb      	ldrh	r3, [r7, #14]
 80027ee:	ee07 3a90 	vmov	s15, r3
 80027f2:	eeb8 7ae7 	vcvt.f32.s32	s14, s15
 80027f6:	eec6 7a87 	vdiv.f32	s15, s13, s14
 80027fa:	4b4b      	ldr	r3, [pc, #300]	@ (8002928 <color_loop_fade_update+0x290>)
 80027fc:	edc3 7a00 	vstr	s15, [r3]
		steps_v = (to_v - current.v)/steps_total;
 8002800:	4b41      	ldr	r3, [pc, #260]	@ (8002908 <color_loop_fade_update+0x270>)
 8002802:	ed93 7a00 	vldr	s14, [r3]
 8002806:	4b43      	ldr	r3, [pc, #268]	@ (8002914 <color_loop_fade_update+0x27c>)
 8002808:	edd3 7a02 	vldr	s15, [r3, #8]
 800280c:	ee77 6a67 	vsub.f32	s13, s14, s15
 8002810:	89fb      	ldrh	r3, [r7, #14]
 8002812:	ee07 3a90 	vmov	s15, r3
 8002816:	eeb8 7ae7 	vcvt.f32.s32	s14, s15
 800281a:	eec6 7a87 	vdiv.f32	s15, s13, s14
 800281e:	4b43      	ldr	r3, [pc, #268]	@ (800292c <color_loop_fade_update+0x294>)
 8002820:	edc3 7a00 	vstr	s15, [r3]
		steps_remaining = steps_total;
 8002824:	4a42      	ldr	r2, [pc, #264]	@ (8002930 <color_loop_fade_update+0x298>)
 8002826:	89fb      	ldrh	r3, [r7, #14]
 8002828:	8013      	strh	r3, [r2, #0]

		color_transition_done = false;
 800282a:	4b32      	ldr	r3, [pc, #200]	@ (80028f4 <color_loop_fade_update+0x25c>)
 800282c:	2200      	movs	r2, #0
 800282e:	701a      	strb	r2, [r3, #0]
	}


	float set_h = current.h + steps_h;
 8002830:	4b38      	ldr	r3, [pc, #224]	@ (8002914 <color_loop_fade_update+0x27c>)
 8002832:	ed93 7a00 	vldr	s14, [r3]
 8002836:	4b3b      	ldr	r3, [pc, #236]	@ (8002924 <color_loop_fade_update+0x28c>)
 8002838:	edd3 7a00 	vldr	s15, [r3]
 800283c:	ee77 7a27 	vadd.f32	s15, s14, s15
 8002840:	edc7 7a06 	vstr	s15, [r7, #24]
	float set_s = current.s + steps_s;
 8002844:	4b33      	ldr	r3, [pc, #204]	@ (8002914 <color_loop_fade_update+0x27c>)
 8002846:	ed93 7a01 	vldr	s14, [r3, #4]
 800284a:	4b37      	ldr	r3, [pc, #220]	@ (8002928 <color_loop_fade_update+0x290>)
 800284c:	edd3 7a00 	vldr	s15, [r3]
 8002850:	ee77 7a27 	vadd.f32	s15, s14, s15
 8002854:	edc7 7a05 	vstr	s15, [r7, #20]
	float set_v = current.v + steps_v;
 8002858:	4b2e      	ldr	r3, [pc, #184]	@ (8002914 <color_loop_fade_update+0x27c>)
 800285a:	ed93 7a02 	vldr	s14, [r3, #8]
 800285e:	4b33      	ldr	r3, [pc, #204]	@ (800292c <color_loop_fade_update+0x294>)
 8002860:	edd3 7a00 	vldr	s15, [r3]
 8002864:	ee77 7a27 	vadd.f32	s15, s14, s15
 8002868:	edc7 7a04 	vstr	s15, [r7, #16]

	steps_remaining -= 1;
 800286c:	4b30      	ldr	r3, [pc, #192]	@ (8002930 <color_loop_fade_update+0x298>)
 800286e:	881b      	ldrh	r3, [r3, #0]
 8002870:	3b01      	subs	r3, #1
 8002872:	b29a      	uxth	r2, r3
 8002874:	4b2e      	ldr	r3, [pc, #184]	@ (8002930 <color_loop_fade_update+0x298>)
 8002876:	801a      	strh	r2, [r3, #0]
	if(steps_remaining == 0){
 8002878:	4b2d      	ldr	r3, [pc, #180]	@ (8002930 <color_loop_fade_update+0x298>)
 800287a:	881b      	ldrh	r3, [r3, #0]
 800287c:	2b00      	cmp	r3, #0
 800287e:	d10b      	bne.n	8002898 <color_loop_fade_update+0x200>
		set_h  = to_h;
 8002880:	4b1f      	ldr	r3, [pc, #124]	@ (8002900 <color_loop_fade_update+0x268>)
 8002882:	681b      	ldr	r3, [r3, #0]
 8002884:	61bb      	str	r3, [r7, #24]
		set_s  = to_s;
 8002886:	4b1f      	ldr	r3, [pc, #124]	@ (8002904 <color_loop_fade_update+0x26c>)
 8002888:	681b      	ldr	r3, [r3, #0]
 800288a:	617b      	str	r3, [r7, #20]
		set_v  = to_v;
 800288c:	4b1e      	ldr	r3, [pc, #120]	@ (8002908 <color_loop_fade_update+0x270>)
 800288e:	681b      	ldr	r3, [r3, #0]
 8002890:	613b      	str	r3, [r7, #16]
		color_transition_done = true;
 8002892:	4b18      	ldr	r3, [pc, #96]	@ (80028f4 <color_loop_fade_update+0x25c>)
 8002894:	2201      	movs	r2, #1
 8002896:	701a      	strb	r2, [r3, #0]
	}
	to_rgb = hsv_to_rgb(set_h, set_s, set_v);
 8002898:	4c26      	ldr	r4, [pc, #152]	@ (8002934 <color_loop_fade_update+0x29c>)
 800289a:	463b      	mov	r3, r7
 800289c:	ed97 1a04 	vldr	s2, [r7, #16]
 80028a0:	edd7 0a05 	vldr	s1, [r7, #20]
 80028a4:	ed97 0a06 	vldr	s0, [r7, #24]
 80028a8:	4618      	mov	r0, r3
 80028aa:	f7ff fa21 	bl	8001cf0 <hsv_to_rgb>
 80028ae:	4622      	mov	r2, r4
 80028b0:	463b      	mov	r3, r7
 80028b2:	6818      	ldr	r0, [r3, #0]
 80028b4:	6010      	str	r0, [r2, #0]
 80028b6:	889b      	ldrh	r3, [r3, #4]
 80028b8:	8093      	strh	r3, [r2, #4]
	lighting_set_color(to_rgb.r, to_rgb.g, to_rgb.b);
 80028ba:	4b1e      	ldr	r3, [pc, #120]	@ (8002934 <color_loop_fade_update+0x29c>)
 80028bc:	881b      	ldrh	r3, [r3, #0]
 80028be:	b29b      	uxth	r3, r3
 80028c0:	4a1c      	ldr	r2, [pc, #112]	@ (8002934 <color_loop_fade_update+0x29c>)
 80028c2:	8852      	ldrh	r2, [r2, #2]
 80028c4:	b291      	uxth	r1, r2
 80028c6:	4a1b      	ldr	r2, [pc, #108]	@ (8002934 <color_loop_fade_update+0x29c>)
 80028c8:	8892      	ldrh	r2, [r2, #4]
 80028ca:	b292      	uxth	r2, r2
 80028cc:	4618      	mov	r0, r3
 80028ce:	f7ff fd15 	bl	80022fc <lighting_set_color>
	led_update();
 80028d2:	f7ff f8d3 	bl	8001a7c <led_update>
 80028d6:	e000      	b.n	80028da <color_loop_fade_update+0x242>
		return;
 80028d8:	bf00      	nop
}
 80028da:	3724      	adds	r7, #36	@ 0x24
 80028dc:	46bd      	mov	sp, r7
 80028de:	bd90      	pop	{r4, r7, pc}
 80028e0:	00000000 	.word	0x00000000
 80028e4:	40768000 	.word	0x40768000
 80028e8:	200001d8 	.word	0x200001d8
 80028ec:	200001e0 	.word	0x200001e0
 80028f0:	200001d4 	.word	0x200001d4
 80028f4:	200001e1 	.word	0x200001e1
 80028f8:	20000004 	.word	0x20000004
 80028fc:	200001a4 	.word	0x200001a4
 8002900:	20000188 	.word	0x20000188
 8002904:	2000018c 	.word	0x2000018c
 8002908:	20000190 	.word	0x20000190
 800290c:	200001d6 	.word	0x200001d6
 8002910:	20000002 	.word	0x20000002
 8002914:	2000017c 	.word	0x2000017c
 8002918:	43340000 	.word	0x43340000
 800291c:	43b40000 	.word	0x43b40000
 8002920:	c3340000 	.word	0xc3340000
 8002924:	20000194 	.word	0x20000194
 8002928:	20000198 	.word	0x20000198
 800292c:	2000019c 	.word	0x2000019c
 8002930:	200001a0 	.word	0x200001a0
 8002934:	20000174 	.word	0x20000174

08002938 <lighting_start_color_loop>:


void lighting_start_color_loop(uint8_t *color_arr, uint8_t color_count, uint16_t fade_time){
 8002938:	b580      	push	{r7, lr}
 800293a:	b086      	sub	sp, #24
 800293c:	af00      	add	r7, sp, #0
 800293e:	6078      	str	r0, [r7, #4]
 8002940:	460b      	mov	r3, r1
 8002942:	70fb      	strb	r3, [r7, #3]
 8002944:	4613      	mov	r3, r2
 8002946:	803b      	strh	r3, [r7, #0]
	static_color_count = color_count;
 8002948:	4a77      	ldr	r2, [pc, #476]	@ (8002b28 <lighting_start_color_loop+0x1f0>)
 800294a:	78fb      	ldrb	r3, [r7, #3]
 800294c:	7013      	strb	r3, [r2, #0]
	static_fade_time = fade_time;
 800294e:	4a77      	ldr	r2, [pc, #476]	@ (8002b2c <lighting_start_color_loop+0x1f4>)
 8002950:	883b      	ldrh	r3, [r7, #0]
 8002952:	8013      	strh	r3, [r2, #0]
	for(uint8_t i = 0; i < static_color_count; i++){
 8002954:	2300      	movs	r3, #0
 8002956:	75fb      	strb	r3, [r7, #23]
 8002958:	e04d      	b.n	80029f6 <lighting_start_color_loop+0xbe>
			static_color_arr[0 + i*3] =(float)color_arr[0 + i*3];
 800295a:	7dfa      	ldrb	r2, [r7, #23]
 800295c:	4613      	mov	r3, r2
 800295e:	005b      	lsls	r3, r3, #1
 8002960:	4413      	add	r3, r2
 8002962:	461a      	mov	r2, r3
 8002964:	687b      	ldr	r3, [r7, #4]
 8002966:	4413      	add	r3, r2
 8002968:	7819      	ldrb	r1, [r3, #0]
 800296a:	7dfa      	ldrb	r2, [r7, #23]
 800296c:	4613      	mov	r3, r2
 800296e:	005b      	lsls	r3, r3, #1
 8002970:	4413      	add	r3, r2
 8002972:	ee07 1a90 	vmov	s15, r1
 8002976:	eef8 7a67 	vcvt.f32.u32	s15, s15
 800297a:	4a6d      	ldr	r2, [pc, #436]	@ (8002b30 <lighting_start_color_loop+0x1f8>)
 800297c:	009b      	lsls	r3, r3, #2
 800297e:	4413      	add	r3, r2
 8002980:	edc3 7a00 	vstr	s15, [r3]
			static_color_arr[1 + i*3] = color_arr[1 + i*3]/255.0f;
 8002984:	7dfa      	ldrb	r2, [r7, #23]
 8002986:	4613      	mov	r3, r2
 8002988:	005b      	lsls	r3, r3, #1
 800298a:	4413      	add	r3, r2
 800298c:	3301      	adds	r3, #1
 800298e:	461a      	mov	r2, r3
 8002990:	687b      	ldr	r3, [r7, #4]
 8002992:	4413      	add	r3, r2
 8002994:	781b      	ldrb	r3, [r3, #0]
 8002996:	ee07 3a90 	vmov	s15, r3
 800299a:	eeb8 7ae7 	vcvt.f32.s32	s14, s15
 800299e:	7dfa      	ldrb	r2, [r7, #23]
 80029a0:	4613      	mov	r3, r2
 80029a2:	005b      	lsls	r3, r3, #1
 80029a4:	4413      	add	r3, r2
 80029a6:	3301      	adds	r3, #1
 80029a8:	eddf 6a62 	vldr	s13, [pc, #392]	@ 8002b34 <lighting_start_color_loop+0x1fc>
 80029ac:	eec7 7a26 	vdiv.f32	s15, s14, s13
 80029b0:	4a5f      	ldr	r2, [pc, #380]	@ (8002b30 <lighting_start_color_loop+0x1f8>)
 80029b2:	009b      	lsls	r3, r3, #2
 80029b4:	4413      	add	r3, r2
 80029b6:	edc3 7a00 	vstr	s15, [r3]
			static_color_arr[2 + i*3] = color_arr[2 + i*3]/255.0f;
 80029ba:	7dfa      	ldrb	r2, [r7, #23]
 80029bc:	4613      	mov	r3, r2
 80029be:	005b      	lsls	r3, r3, #1
 80029c0:	4413      	add	r3, r2
 80029c2:	3302      	adds	r3, #2
 80029c4:	461a      	mov	r2, r3
 80029c6:	687b      	ldr	r3, [r7, #4]
 80029c8:	4413      	add	r3, r2
 80029ca:	781b      	ldrb	r3, [r3, #0]
 80029cc:	ee07 3a90 	vmov	s15, r3
 80029d0:	eeb8 7ae7 	vcvt.f32.s32	s14, s15
 80029d4:	7dfa      	ldrb	r2, [r7, #23]
 80029d6:	4613      	mov	r3, r2
 80029d8:	005b      	lsls	r3, r3, #1
 80029da:	4413      	add	r3, r2
 80029dc:	3302      	adds	r3, #2
 80029de:	eddf 6a55 	vldr	s13, [pc, #340]	@ 8002b34 <lighting_start_color_loop+0x1fc>
 80029e2:	eec7 7a26 	vdiv.f32	s15, s14, s13
 80029e6:	4a52      	ldr	r2, [pc, #328]	@ (8002b30 <lighting_start_color_loop+0x1f8>)
 80029e8:	009b      	lsls	r3, r3, #2
 80029ea:	4413      	add	r3, r2
 80029ec:	edc3 7a00 	vstr	s15, [r3]
	for(uint8_t i = 0; i < static_color_count; i++){
 80029f0:	7dfb      	ldrb	r3, [r7, #23]
 80029f2:	3301      	adds	r3, #1
 80029f4:	75fb      	strb	r3, [r7, #23]
 80029f6:	4b4c      	ldr	r3, [pc, #304]	@ (8002b28 <lighting_start_color_loop+0x1f0>)
 80029f8:	781b      	ldrb	r3, [r3, #0]
 80029fa:	7dfa      	ldrb	r2, [r7, #23]
 80029fc:	429a      	cmp	r2, r3
 80029fe:	d3ac      	bcc.n	800295a <lighting_start_color_loop+0x22>
	}
	// transit to the first color
	to_h = static_color_arr[0 + 0*3];
 8002a00:	4b4b      	ldr	r3, [pc, #300]	@ (8002b30 <lighting_start_color_loop+0x1f8>)
 8002a02:	681b      	ldr	r3, [r3, #0]
 8002a04:	4a4c      	ldr	r2, [pc, #304]	@ (8002b38 <lighting_start_color_loop+0x200>)
 8002a06:	6013      	str	r3, [r2, #0]
	to_s = static_color_arr[1 + 0*3];
 8002a08:	4b49      	ldr	r3, [pc, #292]	@ (8002b30 <lighting_start_color_loop+0x1f8>)
 8002a0a:	685b      	ldr	r3, [r3, #4]
 8002a0c:	4a4b      	ldr	r2, [pc, #300]	@ (8002b3c <lighting_start_color_loop+0x204>)
 8002a0e:	6013      	str	r3, [r2, #0]
	to_v = static_color_arr[2 + 0*3];
 8002a10:	4b47      	ldr	r3, [pc, #284]	@ (8002b30 <lighting_start_color_loop+0x1f8>)
 8002a12:	689b      	ldr	r3, [r3, #8]
 8002a14:	4a4a      	ldr	r2, [pc, #296]	@ (8002b40 <lighting_start_color_loop+0x208>)
 8002a16:	6013      	str	r3, [r2, #0]

	uint16_t steps_total = 400/period_ms;
 8002a18:	4b4a      	ldr	r3, [pc, #296]	@ (8002b44 <lighting_start_color_loop+0x20c>)
 8002a1a:	881b      	ldrh	r3, [r3, #0]
 8002a1c:	461a      	mov	r2, r3
 8002a1e:	f44f 73c8 	mov.w	r3, #400	@ 0x190
 8002a22:	fb93 f3f2 	sdiv	r3, r3, r2
 8002a26:	81fb      	strh	r3, [r7, #14]

	float diff_h = fmod((to_h - current.h), 360.0f);
 8002a28:	4b43      	ldr	r3, [pc, #268]	@ (8002b38 <lighting_start_color_loop+0x200>)
 8002a2a:	ed93 7a00 	vldr	s14, [r3]
 8002a2e:	4b46      	ldr	r3, [pc, #280]	@ (8002b48 <lighting_start_color_loop+0x210>)
 8002a30:	edd3 7a00 	vldr	s15, [r3]
 8002a34:	ee77 7a67 	vsub.f32	s15, s14, s15
 8002a38:	ee17 0a90 	vmov	r0, s15
 8002a3c:	f7fd fd28 	bl	8000490 <__aeabi_f2d>
 8002a40:	4602      	mov	r2, r0
 8002a42:	460b      	mov	r3, r1
 8002a44:	ed9f 1b36 	vldr	d1, [pc, #216]	@ 8002b20 <lighting_start_color_loop+0x1e8>
 8002a48:	ec43 2b10 	vmov	d0, r2, r3
 8002a4c:	f000 f91a 	bl	8002c84 <fmod>
 8002a50:	ec53 2b10 	vmov	r2, r3, d0
 8002a54:	4610      	mov	r0, r2
 8002a56:	4619      	mov	r1, r3
 8002a58:	f7fe f842 	bl	8000ae0 <__aeabi_d2f>
 8002a5c:	4603      	mov	r3, r0
 8002a5e:	613b      	str	r3, [r7, #16]
	if(diff_h > 180.0f) diff_h -=360.0f;
 8002a60:	edd7 7a04 	vldr	s15, [r7, #16]
 8002a64:	ed9f 7a39 	vldr	s14, [pc, #228]	@ 8002b4c <lighting_start_color_loop+0x214>
 8002a68:	eef4 7ac7 	vcmpe.f32	s15, s14
 8002a6c:	eef1 fa10 	vmrs	APSR_nzcv, fpscr
 8002a70:	dd07      	ble.n	8002a82 <lighting_start_color_loop+0x14a>
 8002a72:	edd7 7a04 	vldr	s15, [r7, #16]
 8002a76:	ed9f 7a36 	vldr	s14, [pc, #216]	@ 8002b50 <lighting_start_color_loop+0x218>
 8002a7a:	ee77 7ac7 	vsub.f32	s15, s15, s14
 8002a7e:	edc7 7a04 	vstr	s15, [r7, #16]
	if(diff_h < -180.0f) diff_h +=360.0f;
 8002a82:	edd7 7a04 	vldr	s15, [r7, #16]
 8002a86:	ed9f 7a33 	vldr	s14, [pc, #204]	@ 8002b54 <lighting_start_color_loop+0x21c>
 8002a8a:	eef4 7ac7 	vcmpe.f32	s15, s14
 8002a8e:	eef1 fa10 	vmrs	APSR_nzcv, fpscr
 8002a92:	d507      	bpl.n	8002aa4 <lighting_start_color_loop+0x16c>
 8002a94:	edd7 7a04 	vldr	s15, [r7, #16]
 8002a98:	ed9f 7a2d 	vldr	s14, [pc, #180]	@ 8002b50 <lighting_start_color_loop+0x218>
 8002a9c:	ee77 7a87 	vadd.f32	s15, s15, s14
 8002aa0:	edc7 7a04 	vstr	s15, [r7, #16]
	steps_h = diff_h/steps_total;
 8002aa4:	89fb      	ldrh	r3, [r7, #14]
 8002aa6:	ee07 3a90 	vmov	s15, r3
 8002aaa:	eeb8 7ae7 	vcvt.f32.s32	s14, s15
 8002aae:	edd7 6a04 	vldr	s13, [r7, #16]
 8002ab2:	eec6 7a87 	vdiv.f32	s15, s13, s14
 8002ab6:	4b28      	ldr	r3, [pc, #160]	@ (8002b58 <lighting_start_color_loop+0x220>)
 8002ab8:	edc3 7a00 	vstr	s15, [r3]
	steps_s = (to_s - current.s)/steps_total;
 8002abc:	4b1f      	ldr	r3, [pc, #124]	@ (8002b3c <lighting_start_color_loop+0x204>)
 8002abe:	ed93 7a00 	vldr	s14, [r3]
 8002ac2:	4b21      	ldr	r3, [pc, #132]	@ (8002b48 <lighting_start_color_loop+0x210>)
 8002ac4:	edd3 7a01 	vldr	s15, [r3, #4]
 8002ac8:	ee77 6a67 	vsub.f32	s13, s14, s15
 8002acc:	89fb      	ldrh	r3, [r7, #14]
 8002ace:	ee07 3a90 	vmov	s15, r3
 8002ad2:	eeb8 7ae7 	vcvt.f32.s32	s14, s15
 8002ad6:	eec6 7a87 	vdiv.f32	s15, s13, s14
 8002ada:	4b20      	ldr	r3, [pc, #128]	@ (8002b5c <lighting_start_color_loop+0x224>)
 8002adc:	edc3 7a00 	vstr	s15, [r3]
	steps_v = (to_v - current.v)/steps_total;
 8002ae0:	4b17      	ldr	r3, [pc, #92]	@ (8002b40 <lighting_start_color_loop+0x208>)
 8002ae2:	ed93 7a00 	vldr	s14, [r3]
 8002ae6:	4b18      	ldr	r3, [pc, #96]	@ (8002b48 <lighting_start_color_loop+0x210>)
 8002ae8:	edd3 7a02 	vldr	s15, [r3, #8]
 8002aec:	ee77 6a67 	vsub.f32	s13, s14, s15
 8002af0:	89fb      	ldrh	r3, [r7, #14]
 8002af2:	ee07 3a90 	vmov	s15, r3
 8002af6:	eeb8 7ae7 	vcvt.f32.s32	s14, s15
 8002afa:	eec6 7a87 	vdiv.f32	s15, s13, s14
 8002afe:	4b18      	ldr	r3, [pc, #96]	@ (8002b60 <lighting_start_color_loop+0x228>)
 8002b00:	edc3 7a00 	vstr	s15, [r3]
	steps_remaining = steps_total;
 8002b04:	4a17      	ldr	r2, [pc, #92]	@ (8002b64 <lighting_start_color_loop+0x22c>)
 8002b06:	89fb      	ldrh	r3, [r7, #14]
 8002b08:	8013      	strh	r3, [r2, #0]

	is_active = true;
 8002b0a:	4b17      	ldr	r3, [pc, #92]	@ (8002b68 <lighting_start_color_loop+0x230>)
 8002b0c:	2201      	movs	r2, #1
 8002b0e:	701a      	strb	r2, [r3, #0]
	tim4_start();
 8002b10:	f7fe fe50 	bl	80017b4 <tim4_start>

}
 8002b14:	bf00      	nop
 8002b16:	3718      	adds	r7, #24
 8002b18:	46bd      	mov	sp, r7
 8002b1a:	bd80      	pop	{r7, pc}
 8002b1c:	f3af 8000 	nop.w
 8002b20:	00000000 	.word	0x00000000
 8002b24:	40768000 	.word	0x40768000
 8002b28:	200001d4 	.word	0x200001d4
 8002b2c:	200001d6 	.word	0x200001d6
 8002b30:	200001a4 	.word	0x200001a4
 8002b34:	437f0000 	.word	0x437f0000
 8002b38:	20000188 	.word	0x20000188
 8002b3c:	2000018c 	.word	0x2000018c
 8002b40:	20000190 	.word	0x20000190
 8002b44:	20000002 	.word	0x20000002
 8002b48:	2000017c 	.word	0x2000017c
 8002b4c:	43340000 	.word	0x43340000
 8002b50:	43b40000 	.word	0x43b40000
 8002b54:	c3340000 	.word	0xc3340000
 8002b58:	20000194 	.word	0x20000194
 8002b5c:	20000198 	.word	0x20000198
 8002b60:	2000019c 	.word	0x2000019c
 8002b64:	200001a0 	.word	0x200001a0
 8002b68:	200001d8 	.word	0x200001d8

08002b6c <lighting_is_fading>:

bool lighting_is_fading(void){
 8002b6c:	b480      	push	{r7}
 8002b6e:	af00      	add	r7, sp, #0
	return is_active;
 8002b70:	4b03      	ldr	r3, [pc, #12]	@ (8002b80 <lighting_is_fading+0x14>)
 8002b72:	781b      	ldrb	r3, [r3, #0]
}
 8002b74:	4618      	mov	r0, r3
 8002b76:	46bd      	mov	sp, r7
 8002b78:	f85d 7b04 	ldr.w	r7, [sp], #4
 8002b7c:	4770      	bx	lr
 8002b7e:	bf00      	nop
 8002b80:	200001d8 	.word	0x200001d8

08002b84 <timer_stop>:

void timer_stop(void){
 8002b84:	b580      	push	{r7, lr}
 8002b86:	af00      	add	r7, sp, #0
	tim4_stop();
 8002b88:	f7fe fe24 	bl	80017d4 <tim4_stop>
}
 8002b8c:	bf00      	nop
 8002b8e:	bd80      	pop	{r7, pc}

08002b90 <update_timer_callback>:

hsv get_color_status(void){
	return current;
}

void update_timer_callback(light_state_t state){
 8002b90:	b580      	push	{r7, lr}
 8002b92:	b082      	sub	sp, #8
 8002b94:	af00      	add	r7, sp, #0
 8002b96:	4603      	mov	r3, r0
 8002b98:	71fb      	strb	r3, [r7, #7]
	switch(state){
 8002b9a:	79fb      	ldrb	r3, [r7, #7]
 8002b9c:	2b03      	cmp	r3, #3
 8002b9e:	d00e      	beq.n	8002bbe <update_timer_callback+0x2e>
 8002ba0:	2b03      	cmp	r3, #3
 8002ba2:	dc10      	bgt.n	8002bc6 <update_timer_callback+0x36>
 8002ba4:	2b01      	cmp	r3, #1
 8002ba6:	d002      	beq.n	8002bae <update_timer_callback+0x1e>
 8002ba8:	2b02      	cmp	r3, #2
 8002baa:	d004      	beq.n	8002bb6 <update_timer_callback+0x26>
	case DYNAMIC_SCENE:
		set_timer_callback(color_loop_fade_update);
		break;

	default:
		break;
 8002bac:	e00b      	b.n	8002bc6 <update_timer_callback+0x36>
		set_timer_callback(static_rgb_fade_update);
 8002bae:	4808      	ldr	r0, [pc, #32]	@ (8002bd0 <update_timer_callback+0x40>)
 8002bb0:	f7ff f88c 	bl	8001ccc <set_timer_callback>
		break;
 8002bb4:	e008      	b.n	8002bc8 <update_timer_callback+0x38>
		set_timer_callback(rainbow_fade_update);
 8002bb6:	4807      	ldr	r0, [pc, #28]	@ (8002bd4 <update_timer_callback+0x44>)
 8002bb8:	f7ff f888 	bl	8001ccc <set_timer_callback>
		break;
 8002bbc:	e004      	b.n	8002bc8 <update_timer_callback+0x38>
		set_timer_callback(color_loop_fade_update);
 8002bbe:	4806      	ldr	r0, [pc, #24]	@ (8002bd8 <update_timer_callback+0x48>)
 8002bc0:	f7ff f884 	bl	8001ccc <set_timer_callback>
		break;
 8002bc4:	e000      	b.n	8002bc8 <update_timer_callback+0x38>
		break;
 8002bc6:	bf00      	nop
	}
}
 8002bc8:	bf00      	nop
 8002bca:	3708      	adds	r7, #8
 8002bcc:	46bd      	mov	sp, r7
 8002bce:	bd80      	pop	{r7, pc}
 8002bd0:	08002325 	.word	0x08002325
 8002bd4:	080025b9 	.word	0x080025b9
 8002bd8:	08002699 	.word	0x08002699

08002bdc <Reset_Handler>:

  .section .text.Reset_Handler
  .weak Reset_Handler
  .type Reset_Handler, %function
Reset_Handler:
  ldr   r0, =_estack
 8002bdc:	480d      	ldr	r0, [pc, #52]	@ (8002c14 <LoopForever+0x2>)
  mov   sp, r0          /* set stack pointer */
 8002bde:	4685      	mov	sp, r0
/* Call the clock system initialization function.*/
  bl  SystemInit
 8002be0:	f3af 8000 	nop.w

/* Copy the data segment initializers from flash to SRAM */
  ldr r0, =_sdata
 8002be4:	480c      	ldr	r0, [pc, #48]	@ (8002c18 <LoopForever+0x6>)
  ldr r1, =_edata
 8002be6:	490d      	ldr	r1, [pc, #52]	@ (8002c1c <LoopForever+0xa>)
  ldr r2, =_sidata
 8002be8:	4a0d      	ldr	r2, [pc, #52]	@ (8002c20 <LoopForever+0xe>)
  movs r3, #0
 8002bea:	2300      	movs	r3, #0
  b LoopCopyDataInit
 8002bec:	e002      	b.n	8002bf4 <LoopCopyDataInit>

08002bee <CopyDataInit>:

CopyDataInit:
  ldr r4, [r2, r3]
 8002bee:	58d4      	ldr	r4, [r2, r3]
  str r4, [r0, r3]
 8002bf0:	50c4      	str	r4, [r0, r3]
  adds r3, r3, #4
 8002bf2:	3304      	adds	r3, #4

08002bf4 <LoopCopyDataInit>:

LoopCopyDataInit:
  adds r4, r0, r3
 8002bf4:	18c4      	adds	r4, r0, r3
  cmp r4, r1
 8002bf6:	428c      	cmp	r4, r1
  bcc CopyDataInit
 8002bf8:	d3f9      	bcc.n	8002bee <CopyDataInit>

/* Zero fill the bss segment. */
  ldr r2, =_sbss
 8002bfa:	4a0a      	ldr	r2, [pc, #40]	@ (8002c24 <LoopForever+0x12>)
  ldr r4, =_ebss
 8002bfc:	4c0a      	ldr	r4, [pc, #40]	@ (8002c28 <LoopForever+0x16>)
  movs r3, #0
 8002bfe:	2300      	movs	r3, #0
  b LoopFillZerobss
 8002c00:	e001      	b.n	8002c06 <LoopFillZerobss>

08002c02 <FillZerobss>:

FillZerobss:
  str  r3, [r2]
 8002c02:	6013      	str	r3, [r2, #0]
  adds r2, r2, #4
 8002c04:	3204      	adds	r2, #4

08002c06 <LoopFillZerobss>:

LoopFillZerobss:
  cmp r2, r4
 8002c06:	42a2      	cmp	r2, r4
  bcc FillZerobss
 8002c08:	d3fb      	bcc.n	8002c02 <FillZerobss>


/* Call static constructors */
  bl __libc_init_array
 8002c0a:	f000 f817 	bl	8002c3c <__libc_init_array>
/* Call the application's entry point.*/

  bl main
 8002c0e:	f7fe f86b 	bl	8000ce8 <main>

08002c12 <LoopForever>:

LoopForever:
  b LoopForever
 8002c12:	e7fe      	b.n	8002c12 <LoopForever>
  ldr   r0, =_estack
 8002c14:	20020000 	.word	0x20020000
  ldr r0, =_sdata
 8002c18:	20000000 	.word	0x20000000
  ldr r1, =_edata
 8002c1c:	20000058 	.word	0x20000058
  ldr r2, =_sidata
 8002c20:	08003038 	.word	0x08003038
  ldr r2, =_sbss
 8002c24:	20000058 	.word	0x20000058
  ldr r4, =_ebss
 8002c28:	2000031c 	.word	0x2000031c

08002c2c <ADC_IRQHandler>:
 * @retval : None
*/
  .section .text.Default_Handler,"ax",%progbits
Default_Handler:
Infinite_Loop:
  b Infinite_Loop
 8002c2c:	e7fe      	b.n	8002c2c <ADC_IRQHandler>
	...

08002c30 <__errno>:
 8002c30:	4b01      	ldr	r3, [pc, #4]	@ (8002c38 <__errno+0x8>)
 8002c32:	6818      	ldr	r0, [r3, #0]
 8002c34:	4770      	bx	lr
 8002c36:	bf00      	nop
 8002c38:	20000008 	.word	0x20000008

08002c3c <__libc_init_array>:
 8002c3c:	b570      	push	{r4, r5, r6, lr}
 8002c3e:	4d0d      	ldr	r5, [pc, #52]	@ (8002c74 <__libc_init_array+0x38>)
 8002c40:	4c0d      	ldr	r4, [pc, #52]	@ (8002c78 <__libc_init_array+0x3c>)
 8002c42:	1b64      	subs	r4, r4, r5
 8002c44:	10a4      	asrs	r4, r4, #2
 8002c46:	2600      	movs	r6, #0
 8002c48:	42a6      	cmp	r6, r4
 8002c4a:	d109      	bne.n	8002c60 <__libc_init_array+0x24>
 8002c4c:	4d0b      	ldr	r5, [pc, #44]	@ (8002c7c <__libc_init_array+0x40>)
 8002c4e:	4c0c      	ldr	r4, [pc, #48]	@ (8002c80 <__libc_init_array+0x44>)
 8002c50:	f000 f9d8 	bl	8003004 <_init>
 8002c54:	1b64      	subs	r4, r4, r5
 8002c56:	10a4      	asrs	r4, r4, #2
 8002c58:	2600      	movs	r6, #0
 8002c5a:	42a6      	cmp	r6, r4
 8002c5c:	d105      	bne.n	8002c6a <__libc_init_array+0x2e>
 8002c5e:	bd70      	pop	{r4, r5, r6, pc}
 8002c60:	f855 3b04 	ldr.w	r3, [r5], #4
 8002c64:	4798      	blx	r3
 8002c66:	3601      	adds	r6, #1
 8002c68:	e7ee      	b.n	8002c48 <__libc_init_array+0xc>
 8002c6a:	f855 3b04 	ldr.w	r3, [r5], #4
 8002c6e:	4798      	blx	r3
 8002c70:	3601      	adds	r6, #1
 8002c72:	e7f2      	b.n	8002c5a <__libc_init_array+0x1e>
 8002c74:	08003030 	.word	0x08003030
 8002c78:	08003030 	.word	0x08003030
 8002c7c:	08003030 	.word	0x08003030
 8002c80:	08003034 	.word	0x08003034

08002c84 <fmod>:
 8002c84:	b5f8      	push	{r3, r4, r5, r6, r7, lr}
 8002c86:	ed2d 8b02 	vpush	{d8}
 8002c8a:	ec57 6b10 	vmov	r6, r7, d0
 8002c8e:	ec55 4b11 	vmov	r4, r5, d1
 8002c92:	f000 f825 	bl	8002ce0 <__ieee754_fmod>
 8002c96:	4622      	mov	r2, r4
 8002c98:	462b      	mov	r3, r5
 8002c9a:	4630      	mov	r0, r6
 8002c9c:	4639      	mov	r1, r7
 8002c9e:	eeb0 8a40 	vmov.f32	s16, s0
 8002ca2:	eef0 8a60 	vmov.f32	s17, s1
 8002ca6:	f7fd fee5 	bl	8000a74 <__aeabi_dcmpun>
 8002caa:	b990      	cbnz	r0, 8002cd2 <fmod+0x4e>
 8002cac:	2200      	movs	r2, #0
 8002cae:	2300      	movs	r3, #0
 8002cb0:	4620      	mov	r0, r4
 8002cb2:	4629      	mov	r1, r5
 8002cb4:	f7fd feac 	bl	8000a10 <__aeabi_dcmpeq>
 8002cb8:	b158      	cbz	r0, 8002cd2 <fmod+0x4e>
 8002cba:	f7ff ffb9 	bl	8002c30 <__errno>
 8002cbe:	2321      	movs	r3, #33	@ 0x21
 8002cc0:	6003      	str	r3, [r0, #0]
 8002cc2:	2200      	movs	r2, #0
 8002cc4:	2300      	movs	r3, #0
 8002cc6:	4610      	mov	r0, r2
 8002cc8:	4619      	mov	r1, r3
 8002cca:	f7fd fd63 	bl	8000794 <__aeabi_ddiv>
 8002cce:	ec41 0b18 	vmov	d8, r0, r1
 8002cd2:	eeb0 0a48 	vmov.f32	s0, s16
 8002cd6:	eef0 0a68 	vmov.f32	s1, s17
 8002cda:	ecbd 8b02 	vpop	{d8}
 8002cde:	bdf8      	pop	{r3, r4, r5, r6, r7, pc}

08002ce0 <__ieee754_fmod>:
 8002ce0:	ec53 2b11 	vmov	r2, r3, d1
 8002ce4:	e92d 47f0 	stmdb	sp!, {r4, r5, r6, r7, r8, r9, sl, lr}
 8002ce8:	f023 4800 	bic.w	r8, r3, #2147483648	@ 0x80000000
 8002cec:	ea52 0408 	orrs.w	r4, r2, r8
 8002cf0:	ec51 0b10 	vmov	r0, r1, d0
 8002cf4:	461e      	mov	r6, r3
 8002cf6:	4696      	mov	lr, r2
 8002cf8:	4694      	mov	ip, r2
 8002cfa:	d00c      	beq.n	8002d16 <__ieee754_fmod+0x36>
 8002cfc:	4d76      	ldr	r5, [pc, #472]	@ (8002ed8 <__ieee754_fmod+0x1f8>)
 8002cfe:	f021 4900 	bic.w	r9, r1, #2147483648	@ 0x80000000
 8002d02:	45a9      	cmp	r9, r5
 8002d04:	460c      	mov	r4, r1
 8002d06:	d806      	bhi.n	8002d16 <__ieee754_fmod+0x36>
 8002d08:	4255      	negs	r5, r2
 8002d0a:	4f74      	ldr	r7, [pc, #464]	@ (8002edc <__ieee754_fmod+0x1fc>)
 8002d0c:	4315      	orrs	r5, r2
 8002d0e:	ea48 75d5 	orr.w	r5, r8, r5, lsr #31
 8002d12:	42bd      	cmp	r5, r7
 8002d14:	d909      	bls.n	8002d2a <__ieee754_fmod+0x4a>
 8002d16:	f7fd fc13 	bl	8000540 <__aeabi_dmul>
 8002d1a:	4602      	mov	r2, r0
 8002d1c:	460b      	mov	r3, r1
 8002d1e:	f7fd fd39 	bl	8000794 <__aeabi_ddiv>
 8002d22:	ec41 0b10 	vmov	d0, r0, r1
 8002d26:	e8bd 87f0 	ldmia.w	sp!, {r4, r5, r6, r7, r8, r9, sl, pc}
 8002d2a:	45c1      	cmp	r9, r8
 8002d2c:	4682      	mov	sl, r0
 8002d2e:	4607      	mov	r7, r0
 8002d30:	f001 4500 	and.w	r5, r1, #2147483648	@ 0x80000000
 8002d34:	dc09      	bgt.n	8002d4a <__ieee754_fmod+0x6a>
 8002d36:	dbf4      	blt.n	8002d22 <__ieee754_fmod+0x42>
 8002d38:	4282      	cmp	r2, r0
 8002d3a:	d8f2      	bhi.n	8002d22 <__ieee754_fmod+0x42>
 8002d3c:	d105      	bne.n	8002d4a <__ieee754_fmod+0x6a>
 8002d3e:	4b68      	ldr	r3, [pc, #416]	@ (8002ee0 <__ieee754_fmod+0x200>)
 8002d40:	eb03 7315 	add.w	r3, r3, r5, lsr #28
 8002d44:	e9d3 0100 	ldrd	r0, r1, [r3]
 8002d48:	e7eb      	b.n	8002d22 <__ieee754_fmod+0x42>
 8002d4a:	4964      	ldr	r1, [pc, #400]	@ (8002edc <__ieee754_fmod+0x1fc>)
 8002d4c:	420c      	tst	r4, r1
 8002d4e:	d148      	bne.n	8002de2 <__ieee754_fmod+0x102>
 8002d50:	f1b9 0f00 	cmp.w	r9, #0
 8002d54:	d13d      	bne.n	8002dd2 <__ieee754_fmod+0xf2>
 8002d56:	4a63      	ldr	r2, [pc, #396]	@ (8002ee4 <__ieee754_fmod+0x204>)
 8002d58:	4653      	mov	r3, sl
 8002d5a:	2b00      	cmp	r3, #0
 8002d5c:	dc36      	bgt.n	8002dcc <__ieee754_fmod+0xec>
 8002d5e:	420e      	tst	r6, r1
 8002d60:	d14f      	bne.n	8002e02 <__ieee754_fmod+0x122>
 8002d62:	f1b8 0f00 	cmp.w	r8, #0
 8002d66:	d144      	bne.n	8002df2 <__ieee754_fmod+0x112>
 8002d68:	4b5e      	ldr	r3, [pc, #376]	@ (8002ee4 <__ieee754_fmod+0x204>)
 8002d6a:	4671      	mov	r1, lr
 8002d6c:	2900      	cmp	r1, #0
 8002d6e:	dc3d      	bgt.n	8002dec <__ieee754_fmod+0x10c>
 8002d70:	485d      	ldr	r0, [pc, #372]	@ (8002ee8 <__ieee754_fmod+0x208>)
 8002d72:	4282      	cmp	r2, r0
 8002d74:	db4a      	blt.n	8002e0c <__ieee754_fmod+0x12c>
 8002d76:	f3c4 0113 	ubfx	r1, r4, #0, #20
 8002d7a:	f441 1180 	orr.w	r1, r1, #1048576	@ 0x100000
 8002d7e:	485a      	ldr	r0, [pc, #360]	@ (8002ee8 <__ieee754_fmod+0x208>)
 8002d80:	4283      	cmp	r3, r0
 8002d82:	db57      	blt.n	8002e34 <__ieee754_fmod+0x154>
 8002d84:	f3c6 0613 	ubfx	r6, r6, #0, #20
 8002d88:	f446 1680 	orr.w	r6, r6, #1048576	@ 0x100000
 8002d8c:	1ad0      	subs	r0, r2, r3
 8002d8e:	1b8a      	subs	r2, r1, r6
 8002d90:	eba7 040c 	sub.w	r4, r7, ip
 8002d94:	2800      	cmp	r0, #0
 8002d96:	d162      	bne.n	8002e5e <__ieee754_fmod+0x17e>
 8002d98:	4567      	cmp	r7, ip
 8002d9a:	bf38      	it	cc
 8002d9c:	f102 32ff 	addcc.w	r2, r2, #4294967295	@ 0xffffffff
 8002da0:	2a00      	cmp	r2, #0
 8002da2:	bfbc      	itt	lt
 8002da4:	463c      	movlt	r4, r7
 8002da6:	460a      	movlt	r2, r1
 8002da8:	ea52 0104 	orrs.w	r1, r2, r4
 8002dac:	d0c7      	beq.n	8002d3e <__ieee754_fmod+0x5e>
 8002dae:	f5b2 1f80 	cmp.w	r2, #1048576	@ 0x100000
 8002db2:	db69      	blt.n	8002e88 <__ieee754_fmod+0x1a8>
 8002db4:	494c      	ldr	r1, [pc, #304]	@ (8002ee8 <__ieee754_fmod+0x208>)
 8002db6:	428b      	cmp	r3, r1
 8002db8:	db6c      	blt.n	8002e94 <__ieee754_fmod+0x1b4>
 8002dba:	f5a2 1280 	sub.w	r2, r2, #1048576	@ 0x100000
 8002dbe:	432a      	orrs	r2, r5
 8002dc0:	f203 33ff 	addw	r3, r3, #1023	@ 0x3ff
 8002dc4:	ea42 5103 	orr.w	r1, r2, r3, lsl #20
 8002dc8:	4620      	mov	r0, r4
 8002dca:	e7aa      	b.n	8002d22 <__ieee754_fmod+0x42>
 8002dcc:	3a01      	subs	r2, #1
 8002dce:	005b      	lsls	r3, r3, #1
 8002dd0:	e7c3      	b.n	8002d5a <__ieee754_fmod+0x7a>
 8002dd2:	4a45      	ldr	r2, [pc, #276]	@ (8002ee8 <__ieee754_fmod+0x208>)
 8002dd4:	ea4f 23c9 	mov.w	r3, r9, lsl #11
 8002dd8:	2b00      	cmp	r3, #0
 8002dda:	ddc0      	ble.n	8002d5e <__ieee754_fmod+0x7e>
 8002ddc:	3a01      	subs	r2, #1
 8002dde:	005b      	lsls	r3, r3, #1
 8002de0:	e7fa      	b.n	8002dd8 <__ieee754_fmod+0xf8>
 8002de2:	ea4f 5229 	mov.w	r2, r9, asr #20
 8002de6:	f2a2 32ff 	subw	r2, r2, #1023	@ 0x3ff
 8002dea:	e7b8      	b.n	8002d5e <__ieee754_fmod+0x7e>
 8002dec:	3b01      	subs	r3, #1
 8002dee:	0049      	lsls	r1, r1, #1
 8002df0:	e7bc      	b.n	8002d6c <__ieee754_fmod+0x8c>
 8002df2:	4b3d      	ldr	r3, [pc, #244]	@ (8002ee8 <__ieee754_fmod+0x208>)
 8002df4:	ea4f 21c8 	mov.w	r1, r8, lsl #11
 8002df8:	2900      	cmp	r1, #0
 8002dfa:	ddb9      	ble.n	8002d70 <__ieee754_fmod+0x90>
 8002dfc:	3b01      	subs	r3, #1
 8002dfe:	0049      	lsls	r1, r1, #1
 8002e00:	e7fa      	b.n	8002df8 <__ieee754_fmod+0x118>
 8002e02:	ea4f 5328 	mov.w	r3, r8, asr #20
 8002e06:	f2a3 33ff 	subw	r3, r3, #1023	@ 0x3ff
 8002e0a:	e7b1      	b.n	8002d70 <__ieee754_fmod+0x90>
 8002e0c:	1a80      	subs	r0, r0, r2
 8002e0e:	281f      	cmp	r0, #31
 8002e10:	dc0a      	bgt.n	8002e28 <__ieee754_fmod+0x148>
 8002e12:	f202 411e 	addw	r1, r2, #1054	@ 0x41e
 8002e16:	fa09 f900 	lsl.w	r9, r9, r0
 8002e1a:	fa2a f101 	lsr.w	r1, sl, r1
 8002e1e:	ea41 0109 	orr.w	r1, r1, r9
 8002e22:	fa0a f700 	lsl.w	r7, sl, r0
 8002e26:	e7aa      	b.n	8002d7e <__ieee754_fmod+0x9e>
 8002e28:	4930      	ldr	r1, [pc, #192]	@ (8002eec <__ieee754_fmod+0x20c>)
 8002e2a:	1a89      	subs	r1, r1, r2
 8002e2c:	fa0a f101 	lsl.w	r1, sl, r1
 8002e30:	2700      	movs	r7, #0
 8002e32:	e7a4      	b.n	8002d7e <__ieee754_fmod+0x9e>
 8002e34:	1ac0      	subs	r0, r0, r3
 8002e36:	281f      	cmp	r0, #31
 8002e38:	dc0a      	bgt.n	8002e50 <__ieee754_fmod+0x170>
 8002e3a:	f203 461e 	addw	r6, r3, #1054	@ 0x41e
 8002e3e:	fa08 f800 	lsl.w	r8, r8, r0
 8002e42:	fa2e f606 	lsr.w	r6, lr, r6
 8002e46:	ea46 0608 	orr.w	r6, r6, r8
 8002e4a:	fa0e fc00 	lsl.w	ip, lr, r0
 8002e4e:	e79d      	b.n	8002d8c <__ieee754_fmod+0xac>
 8002e50:	4e26      	ldr	r6, [pc, #152]	@ (8002eec <__ieee754_fmod+0x20c>)
 8002e52:	1af6      	subs	r6, r6, r3
 8002e54:	fa0e f606 	lsl.w	r6, lr, r6
 8002e58:	f04f 0c00 	mov.w	ip, #0
 8002e5c:	e796      	b.n	8002d8c <__ieee754_fmod+0xac>
 8002e5e:	4567      	cmp	r7, ip
 8002e60:	bf38      	it	cc
 8002e62:	f102 32ff 	addcc.w	r2, r2, #4294967295	@ 0xffffffff
 8002e66:	2a00      	cmp	r2, #0
 8002e68:	da05      	bge.n	8002e76 <__ieee754_fmod+0x196>
 8002e6a:	0ffa      	lsrs	r2, r7, #31
 8002e6c:	eb02 0141 	add.w	r1, r2, r1, lsl #1
 8002e70:	007f      	lsls	r7, r7, #1
 8002e72:	3801      	subs	r0, #1
 8002e74:	e78b      	b.n	8002d8e <__ieee754_fmod+0xae>
 8002e76:	ea52 0104 	orrs.w	r1, r2, r4
 8002e7a:	f43f af60 	beq.w	8002d3e <__ieee754_fmod+0x5e>
 8002e7e:	0fe1      	lsrs	r1, r4, #31
 8002e80:	eb01 0142 	add.w	r1, r1, r2, lsl #1
 8002e84:	0067      	lsls	r7, r4, #1
 8002e86:	e7f4      	b.n	8002e72 <__ieee754_fmod+0x192>
 8002e88:	0fe1      	lsrs	r1, r4, #31
 8002e8a:	eb01 0242 	add.w	r2, r1, r2, lsl #1
 8002e8e:	0064      	lsls	r4, r4, #1
 8002e90:	3b01      	subs	r3, #1
 8002e92:	e78c      	b.n	8002dae <__ieee754_fmod+0xce>
 8002e94:	1ac9      	subs	r1, r1, r3
 8002e96:	2914      	cmp	r1, #20
 8002e98:	dc0a      	bgt.n	8002eb0 <__ieee754_fmod+0x1d0>
 8002e9a:	f203 431e 	addw	r3, r3, #1054	@ 0x41e
 8002e9e:	fa02 f303 	lsl.w	r3, r2, r3
 8002ea2:	40cc      	lsrs	r4, r1
 8002ea4:	4323      	orrs	r3, r4
 8002ea6:	410a      	asrs	r2, r1
 8002ea8:	ea42 0105 	orr.w	r1, r2, r5
 8002eac:	4618      	mov	r0, r3
 8002eae:	e738      	b.n	8002d22 <__ieee754_fmod+0x42>
 8002eb0:	291f      	cmp	r1, #31
 8002eb2:	dc07      	bgt.n	8002ec4 <__ieee754_fmod+0x1e4>
 8002eb4:	f203 431e 	addw	r3, r3, #1054	@ 0x41e
 8002eb8:	40cc      	lsrs	r4, r1
 8002eba:	fa02 f303 	lsl.w	r3, r2, r3
 8002ebe:	4323      	orrs	r3, r4
 8002ec0:	462a      	mov	r2, r5
 8002ec2:	e7f1      	b.n	8002ea8 <__ieee754_fmod+0x1c8>
 8002ec4:	f1c3 437f 	rsb	r3, r3, #4278190080	@ 0xff000000
 8002ec8:	f503 037f 	add.w	r3, r3, #16711680	@ 0xff0000
 8002ecc:	f503 437b 	add.w	r3, r3, #64256	@ 0xfb00
 8002ed0:	33e2      	adds	r3, #226	@ 0xe2
 8002ed2:	fa42 f303 	asr.w	r3, r2, r3
 8002ed6:	e7f3      	b.n	8002ec0 <__ieee754_fmod+0x1e0>
 8002ed8:	7fefffff 	.word	0x7fefffff
 8002edc:	7ff00000 	.word	0x7ff00000
 8002ee0:	08003020 	.word	0x08003020
 8002ee4:	fffffbed 	.word	0xfffffbed
 8002ee8:	fffffc02 	.word	0xfffffc02
 8002eec:	fffffbe2 	.word	0xfffffbe2

08002ef0 <round>:
 8002ef0:	ec51 0b10 	vmov	r0, r1, d0
 8002ef4:	b570      	push	{r4, r5, r6, lr}
 8002ef6:	f3c1 540a 	ubfx	r4, r1, #20, #11
 8002efa:	f2a4 32ff 	subw	r2, r4, #1023	@ 0x3ff
 8002efe:	2a13      	cmp	r2, #19
 8002f00:	460b      	mov	r3, r1
 8002f02:	4605      	mov	r5, r0
 8002f04:	dc1b      	bgt.n	8002f3e <round+0x4e>
 8002f06:	2a00      	cmp	r2, #0
 8002f08:	da0b      	bge.n	8002f22 <round+0x32>
 8002f0a:	f001 4300 	and.w	r3, r1, #2147483648	@ 0x80000000
 8002f0e:	3201      	adds	r2, #1
 8002f10:	bf04      	itt	eq
 8002f12:	f043 537f 	orreq.w	r3, r3, #1069547520	@ 0x3fc00000
 8002f16:	f443 1340 	orreq.w	r3, r3, #3145728	@ 0x300000
 8002f1a:	2200      	movs	r2, #0
 8002f1c:	4619      	mov	r1, r3
 8002f1e:	4610      	mov	r0, r2
 8002f20:	e015      	b.n	8002f4e <round+0x5e>
 8002f22:	4c15      	ldr	r4, [pc, #84]	@ (8002f78 <round+0x88>)
 8002f24:	4114      	asrs	r4, r2
 8002f26:	ea04 0601 	and.w	r6, r4, r1
 8002f2a:	4306      	orrs	r6, r0
 8002f2c:	d00f      	beq.n	8002f4e <round+0x5e>
 8002f2e:	f44f 2100 	mov.w	r1, #524288	@ 0x80000
 8002f32:	fa41 f202 	asr.w	r2, r1, r2
 8002f36:	4413      	add	r3, r2
 8002f38:	ea23 0304 	bic.w	r3, r3, r4
 8002f3c:	e7ed      	b.n	8002f1a <round+0x2a>
 8002f3e:	2a33      	cmp	r2, #51	@ 0x33
 8002f40:	dd08      	ble.n	8002f54 <round+0x64>
 8002f42:	f5b2 6f80 	cmp.w	r2, #1024	@ 0x400
 8002f46:	d102      	bne.n	8002f4e <round+0x5e>
 8002f48:	4602      	mov	r2, r0
 8002f4a:	f7fd f943 	bl	80001d4 <__adddf3>
 8002f4e:	ec41 0b10 	vmov	d0, r0, r1
 8002f52:	bd70      	pop	{r4, r5, r6, pc}
 8002f54:	f2a4 4613 	subw	r6, r4, #1043	@ 0x413
 8002f58:	f04f 34ff 	mov.w	r4, #4294967295	@ 0xffffffff
 8002f5c:	40f4      	lsrs	r4, r6
 8002f5e:	4204      	tst	r4, r0
 8002f60:	d0f5      	beq.n	8002f4e <round+0x5e>
 8002f62:	f1c2 0133 	rsb	r1, r2, #51	@ 0x33
 8002f66:	2201      	movs	r2, #1
 8002f68:	408a      	lsls	r2, r1
 8002f6a:	1952      	adds	r2, r2, r5
 8002f6c:	bf28      	it	cs
 8002f6e:	3301      	addcs	r3, #1
 8002f70:	ea22 0204 	bic.w	r2, r2, r4
 8002f74:	e7d2      	b.n	8002f1c <round+0x2c>
 8002f76:	bf00      	nop
 8002f78:	000fffff 	.word	0x000fffff

08002f7c <floorf>:
 8002f7c:	ee10 3a10 	vmov	r3, s0
 8002f80:	f3c3 52c7 	ubfx	r2, r3, #23, #8
 8002f84:	3a7f      	subs	r2, #127	@ 0x7f
 8002f86:	2a16      	cmp	r2, #22
 8002f88:	f023 4100 	bic.w	r1, r3, #2147483648	@ 0x80000000
 8002f8c:	dc2b      	bgt.n	8002fe6 <floorf+0x6a>
 8002f8e:	2a00      	cmp	r2, #0
 8002f90:	da12      	bge.n	8002fb8 <floorf+0x3c>
 8002f92:	eddf 7a19 	vldr	s15, [pc, #100]	@ 8002ff8 <floorf+0x7c>
 8002f96:	ee30 0a27 	vadd.f32	s0, s0, s15
 8002f9a:	eeb5 0ac0 	vcmpe.f32	s0, #0.0
 8002f9e:	eef1 fa10 	vmrs	APSR_nzcv, fpscr
 8002fa2:	dd06      	ble.n	8002fb2 <floorf+0x36>
 8002fa4:	2b00      	cmp	r3, #0
 8002fa6:	da24      	bge.n	8002ff2 <floorf+0x76>
 8002fa8:	2900      	cmp	r1, #0
 8002faa:	4b14      	ldr	r3, [pc, #80]	@ (8002ffc <floorf+0x80>)
 8002fac:	bf08      	it	eq
 8002fae:	f04f 4300 	moveq.w	r3, #2147483648	@ 0x80000000
 8002fb2:	ee00 3a10 	vmov	s0, r3
 8002fb6:	4770      	bx	lr
 8002fb8:	4911      	ldr	r1, [pc, #68]	@ (8003000 <floorf+0x84>)
 8002fba:	4111      	asrs	r1, r2
 8002fbc:	420b      	tst	r3, r1
 8002fbe:	d0fa      	beq.n	8002fb6 <floorf+0x3a>
 8002fc0:	eddf 7a0d 	vldr	s15, [pc, #52]	@ 8002ff8 <floorf+0x7c>
 8002fc4:	ee30 0a27 	vadd.f32	s0, s0, s15
 8002fc8:	eeb5 0ac0 	vcmpe.f32	s0, #0.0
 8002fcc:	eef1 fa10 	vmrs	APSR_nzcv, fpscr
 8002fd0:	ddef      	ble.n	8002fb2 <floorf+0x36>
 8002fd2:	2b00      	cmp	r3, #0
 8002fd4:	bfbe      	ittt	lt
 8002fd6:	f44f 0000 	movlt.w	r0, #8388608	@ 0x800000
 8002fda:	fa40 f202 	asrlt.w	r2, r0, r2
 8002fde:	189b      	addlt	r3, r3, r2
 8002fe0:	ea23 0301 	bic.w	r3, r3, r1
 8002fe4:	e7e5      	b.n	8002fb2 <floorf+0x36>
 8002fe6:	f1b1 4fff 	cmp.w	r1, #2139095040	@ 0x7f800000
 8002fea:	d3e4      	bcc.n	8002fb6 <floorf+0x3a>
 8002fec:	ee30 0a00 	vadd.f32	s0, s0, s0
 8002ff0:	4770      	bx	lr
 8002ff2:	2300      	movs	r3, #0
 8002ff4:	e7dd      	b.n	8002fb2 <floorf+0x36>
 8002ff6:	bf00      	nop
 8002ff8:	7149f2ca 	.word	0x7149f2ca
 8002ffc:	bf800000 	.word	0xbf800000
 8003000:	007fffff 	.word	0x007fffff

08003004 <_init>:
 8003004:	b5f8      	push	{r3, r4, r5, r6, r7, lr}
 8003006:	bf00      	nop
 8003008:	bcf8      	pop	{r3, r4, r5, r6, r7}
 800300a:	bc08      	pop	{r3}
 800300c:	469e      	mov	lr, r3
 800300e:	4770      	bx	lr

08003010 <_fini>:
 8003010:	b5f8      	push	{r3, r4, r5, r6, r7, lr}
 8003012:	bf00      	nop
 8003014:	bcf8      	pop	{r3, r4, r5, r6, r7}
 8003016:	bc08      	pop	{r3}
 8003018:	469e      	mov	lr, r3
 800301a:	4770      	bx	lr
